/tmp/tmpirQ6PxE1.asm:
     1                          MODULE main_c
     2                          LINE 0, "main.c"
main.c:
                                
     1                          ;* * * * *  Small-C/Plus z88dk * * * * *
     2                          ;  Version: 23228-612b6d1ca5-20250313
     3                          ;
     4                          ;	Reconstructed for z80 Module Assembler
     5                          ;
     6                          ;	Module compile time: Sat Jul  5 08:30:34 2025
     7                          
     8                          
     9                          	C_LINE	0,"main.c"
                                
                                	MODULE	main_c
                                
                                
                                	INCLUDE "z80_crt0.hdr"
/Users/painfuldiodes/z88dk/lib/config/../..//lib/z80_crt0.hdr:
     1                          ;
     2                          ;	Header file which contains all required variables from the
     3                          ;	startup that need to be exposed to individual C files
     4                          ;
     5                          ;	Stick in this file any routines which are needed or implicitly
     6                          ;	implied by sccz80.
     7                          ;
     8                          ;	This file is included by every module
     9                          ;	To handle multi module programs which use floating point
    10                          ;	routines in different modules, we have got rid of
    11                          ;	the conditional assembly around the float routines
    12                          
    13                          
    14                          	EXTERN	base_graphics	; Address of graphics screen
    15                          
    16                          	EXTERN	_cpfar2near	; Far->near conversion (z88)
    17                          	EXTERN	packintrout	; Process interrupt (z88 apps)
    18                          
    19                          	EXTERN	l_dcal		; jp(hl)
    20                          	EXTERN	cleanup		; cleanup before program exit
    21                          
    22                          	EXTERN	l_jphl		; another jp(hl)
    23                          	EXTERN	l_jpix		; jp(ix)
    24                          	EXTERN	l_jpiy		; jp(iy)
    25                          
    26                          	EXTERN	l_setix		; set non-z80 jp(ix) smc
    27                          	EXTERN	l_setiy		; set non-z80 jp(iy) smc
    28                          
    29                          	EXTERN	l_ldi
    30                          	EXTERN	l_ldi_128
    31                          	EXTERN	l_ldi_256
    32                          
    33                          	EXTERN	l_outi
    34                          	EXTERN	l_outi_128
    35                          	EXTERN	l_outi_256
    36                          
    37                          	EXTERN	l_ini
    38                          	EXTERN	l_ini_128
    39                          	EXTERN	l_ini_256
    40                          	EXTERN	l_ini_512
    41                          
    42                          	; Used for banked calls for __banked for sccz80 + sdcc
    43                          	EXTERN	banked_call
    44                          
    45                          ;------------------------------------
    46                          ; Scopes for integer library routines
    47                          ;------------------------------------
    48                          
    49                          	EXTERN	l_getptr	;Get 3 byte pointer
    50                          	EXTERN	l_putptr	;Put 3 byte pointer
    51                          	EXTERN	l_gchar		;Get signed char
    52                          	EXTERN	l_gchar1
    53                          	EXTERN	l_gchar2
    54                          	EXTERN	l_gchar3
    55                          	EXTERN	l_gchar4
    56                          	EXTERN	l_gchar5
    57                          	EXTERN	l_gchar6
    58                          	EXTERN	l_gchar7
    59                          	EXTERN	l_gchar8
    60                          	EXTERN	l_gcharsp	;Get signed char  (peephole opt)
    61                          	EXTERN	l_gcharspsp	;Get signed char and push  (peephole opt)
    62                          	EXTERN	l_g2charspsp	;Get 2 signed char and push  (peephole opt)
    63                          	EXTERN	l_sxt		;Sign extend char
    64                          	EXTERN	l_gint		;Get int ld hl,(hl)
    65                          	EXTERN	l_gint1sp	;Optimized variants ld hl,x add hl,sp ld hl,(hl)
    66                          	EXTERN	l_gint2sp
    67                          	EXTERN	l_gint3sp
    68                          	EXTERN	l_gint4sp
    69                          	EXTERN	l_gint5sp
    70                          	EXTERN	l_gint6sp
    71                          	EXTERN	l_gint7sp
    72                          	EXTERN	l_gint8sp
    73                          	EXTERN	l_gint1		;Optimized variants inc hl,x ld hl,(hl)
    74                          	EXTERN	l_gint2
    75                          	EXTERN	l_gint3
    76                          	EXTERN	l_gint4
    77                          	EXTERN	l_gint5
    78                          	EXTERN	l_gint6
    79                          	EXTERN	l_gint7
    80                          	EXTERN	l_gint8
    81                          	EXTERN	l_gintsp	;Get int (peephole opt)
    82                          	EXTERN	l_gintspchar	;Get int,char (peephole opt)
    83                          	EXTERN	l_gintspsp	;Get int and push (peephole opt)
    84                          	EXTERN	l_g2intspsp	;Get 2 int and push (peephole opt)
    85                          	EXTERN	l_gintsp2de	;Get int, multiply by 2 and add from SP by de
    86                          	EXTERN	l_gint7de	;Get int, multiply by 7 and add from SP by de
    87                          	EXTERN	l_gint_eq	;Get int and test == 0
    88                          	EXTERN	l_ghtonsint	;Get reverse order int
    89                          	EXTERN	l_pint		;Put int: ld (de),hl
    90                          	EXTERN	l_pint_eq	;Put int and test == 0
    91                          	EXTERN	l_pint_pop	;Put int and pop place address
    92                          	EXTERN	l_or		;Int logical or
    93                          	EXTERN	l_xor		;Int logical xor
    94                          	EXTERN	l_and		;Int logical and
    95                          	EXTERN	l_eq		;Int equality de == hl
    96                          	EXTERN	l_eq_hlbc	;Int equality bc == hl
    97                          	EXTERN	l_ne		;Int inequality de != hl
    98                          	EXTERN	l_ne_hlbc	;Int inequality bc != hl
    99                          	EXTERN	l_gt		;Int signed de > hl
   100                          	EXTERN	l_gt_hlbc	;Int signed bc > hl
   101                          	EXTERN	l_le		;Int signed de <= hl
   102                          	EXTERN	l_le_hlbc	;Int signed bc <= hl
   103                          	EXTERN	l_ge		;Int signed de >= hl
   104                          	EXTERN	l_ge_hlbc	;Int signed bc >= hl
   105                          	EXTERN	l_lt		;Int signed de < hl
   106                          	EXTERN	l_lt_hlbc	;Int signed bc < hl
   107                          	EXTERN	l_uge		;Int unsigned de >= hl
   108                          	EXTERN	l_uge_hlbc	;Int unsigned bc >= hl
   109                          	EXTERN	l_ult		;Int unsigned de < hl
   110                          	EXTERN	l_ult_hlbc	;Int unsigned bc < hl
   111                          	EXTERN	l_ugt		;Int unsigned de > hl
   112                          	EXTERN	l_ugt_hlbc	;Int unsigned bc > hl
   113                          	EXTERN	l_ule		;Int unsigned de <= hl
   114                          	EXTERN	l_ule_hlbc	;Int unsigned bc <= hl
   115                          	EXTERN	l_cmp		;Int signed compare
   116                          	EXTERN	l_ucmp		;Int unsigned compare
   117                          	EXTERN	l_asr		;Int signed de >> hl
   118                          	EXTERN	l_asr_hl_by_e	;Int signed hl >> e
   119                          	EXTERN	l_asr_u		;Int unsigned de >> hl
   120                          	EXTERN	l_asr_u_hl_by_e	;Int unsigned hl >> e
   121                          	EXTERN	l_asl		;Int de << hl
   122                          	EXTERN	l_sub		;Int subtract hl = de - hl
   123                          	EXTERN	l_neg		;Int negate
   124                          	EXTERN	l_com		;Int ~
   125                          	EXTERN	l_lneg		;Int logical negate
   126                          	EXTERN	l_bool		;Int boolean test
   127                          	EXTERN	l_cm_de
   128                          	EXTERN	l_cm_bc
   129                          	EXTERN	l_deneg
   130                          	EXTERN	l_bcneg
   131                          	EXTERN	l_case		;Integer case
   132                          	EXTERN	l_mult		;Integer hl = hl * de
   133                          	EXTERN	l_mult_u	;Integer unsigned *
   134                          	EXTERN	l_div		;Integer signed / hl=de/hl, de=de%hl
   135                          	EXTERN	l_div_u		;Integer unsigned /
   136                          	EXTERN	l_mod		;Integer % (for gbz80) hl=de%hl
   137                          	EXTERN	l_mod_u		;Integer unsigned % (for gbz80)
   138                          
   139                          ;------------------
   140                          ;Long functions now
   141                          ;------------------
   142                          
   143                          	EXTERN	lpush2		;Push a long under the stack
   144                          	EXTERN	l_int2long_s	;Int->long signed conversion
   145                          	EXTERN	l_int2long_s_float	;Int->long->float signed conversion (optimizer: use -O3)
   146                          	EXTERN	l_int2long_u_float	;uInt->ulong->float signed conversion
   147                          	EXTERN	l_glong		;Get long
   148                          	EXTERN	l_glongsp	;Get long (peephole opt)
   149                          	EXTERN	l_glonghlp	;Get pointer, then get long
   150                          	EXTERN	l_glong2sp	;Get long and copy on stack (peephole opt)
   151                          	EXTERN	l_glong2sp_hlp
   152                          	EXTERN	l_long_add
   153                          	EXTERN	l_long_and
   154                          	EXTERN	l_long_asl
   155                          	EXTERN	l_long_asr
   156                          	EXTERN	l_long_aslo	;Long << shift in c
   157                          	EXTERN	l_long_asro	;Long >> shift in c (signed)
   158                          	EXTERN	l_long_bool
   159                          	EXTERN	l_long_cmp
   160                          	EXTERN	l_long_com
   161                          	EXTERN	l_long_eq
   162                          	EXTERN	l_long_ge
   163                          	EXTERN	l_long_gt
   164                          	EXTERN	l_long_le
   165                          	EXTERN	l_long_lneg
   166                          	EXTERN	l_long_lt
   167                          	EXTERN	l_long_ne
   168                          	EXTERN	l_long_neg
   169                          	EXTERN	l_long_or
   170                          	EXTERN	l_long_sub
   171                          	EXTERN	l_long_ucmp
   172                          	EXTERN	l_long_uge
   173                          	EXTERN	l_long_ugt
   174                          	EXTERN	l_long_ule
   175                          	EXTERN	l_long_ult
   176                          	EXTERN	l_long_xor
   177                          	EXTERN	l_plong
   178                          	EXTERN	l_inclong	;Increment long
   179                          	EXTERN	l_declong	;Decrement long
   180                          	EXTERN	l_long_div
   181                          	EXTERN	l_long_div_u
   182                          	EXTERN	l_long_mod
   183                          	EXTERN	l_long_mod_u
   184                          	EXTERN	l_long_mult
   185                          	EXTERN	l_long_mult_u
   186                          	EXTERN	l_long_asr_u	;Long unsigned >>
   187                          	EXTERN	l_long_asr_uo	;Long unsigned >> shift in c
   188                          	EXTERN	l_long_case
   189                          
   190                          ;--------------------------------------------------------------
   191                          ; Floating point support routines, mostly in library
   192                          ;--------------------------------------------------------------
   193                          
   194                          	EXTERN	dadd
   195                          	EXTERN	ddiv
   196                          	EXTERN	dsub
   197                          	EXTERN	dmul
   198                          
   199                          	EXTERN	dge
   200                          	EXTERN	dgt
   201                          	EXTERN	dleq
   202                          	EXTERN	dlt
   203                          	EXTERN	deq
   204                          	EXTERN	dne
   205                          
   206                          	EXTERN	minusfa		;FA=-FA
   207                          
   208                          	EXTERN	dswap		;Exchange FA with top of stack
   209                          	EXTERN	float		;Convert int to float
   210                          	EXTERN	ufloat		;unsigned int to float
   211                          	EXTERN	ifix		;Convert float to int
   212                          
   213                          	EXTERN	dstore		;FA->(de)
   214                          	EXTERN	dload		;FA<-(hl)
   215                          	EXTERN	dldpsh		;(hl)->(stack)
   216                          	EXTERN	dpush		;FA->(stack)
   217                          	EXTERN	dpush2		;FA->(stack under)
   218                          	EXTERN	dpush3		;FA->(stack under,long)
   219                          
   220                          	EXTERN	fa		;may not be needed in this file
   221                          	EXTERN	extra		;ditto
   222                          	EXTERN	__atof2		;string->fa conversion
   223                          	EXTERN	l_f48_ldexp	;FA * pow2(N)
   224                          	EXTERN	l_f48_f16tof	;Convert _Float16 to float
   225                          	EXTERN	l_f48_ftof16	;Convert float to _Float16
   226                          
   227                          	; 16 bit float ABI
   228                          	EXTERN	l_f16_add
   229                          	EXTERN	l_f16_sub
   230                          	EXTERN	l_f16_mul
   231                          	EXTERN	l_f16_div
   232                          	EXTERN	l_f16_le
   233                          	EXTERN	l_f16_lt
   234                          	EXTERN	l_f16_ge
   235                          	EXTERN	l_f16_gt
   236                          	EXTERN	l_f16_eq
   237                          	EXTERN	l_f16_ne
   238                          	EXTERN	l_f16_swap
   239                          	EXTERN	l_f16_schar2f
   240                          	EXTERN	l_f16_uchar2f
   241                          	EXTERN	l_f16_sint2f
   242                          	EXTERN	l_f16_uint2f
   243                          	EXTERN	l_f16_slong2f
   244                          	EXTERN	l_f16_ulong2f
   245                          	EXTERN	l_f16_f2sint
   246                          	EXTERN	l_f16_f2uint
   247                          	EXTERN	l_f16_f2slong
   248                          	EXTERN	l_f16_f2ulong
   249                          	EXTERN	l_f16_ldexp
   250                          	EXTERN	l_f16_invf	;Only for ieee16
   251                          	EXTERN	l_f16_f16tof	;A noop
   252                          	EXTERN	l_f16_ftof16	;A noop
   253                          
   254                          	; 32 bit float ABI
   255                          	EXTERN	l_f32_add
   256                          	EXTERN	l_f32_sub
   257                          	EXTERN	l_f32_mul
   258                          	EXTERN	l_f32_div
   259                          	EXTERN	l_f32_le
   260                          	EXTERN	l_f32_lt
   261                          	EXTERN	l_f32_ge
   262                          	EXTERN	l_f32_gt
   263                          	EXTERN	l_f32_eq
   264                          	EXTERN	l_f32_ne
   265                          	EXTERN	l_f32_swap
   266                          	EXTERN	l_f32_negate
   267                          	EXTERN	l_f32_schar2f
   268                          	EXTERN	l_f32_uchar2f
   269                          	EXTERN	l_f32_sint2f
   270                          	EXTERN	l_f32_uint2f
   271                          	EXTERN	l_f32_slong2f
   272                          	EXTERN	l_f32_ulong2f
   273                          	EXTERN	l_f32_f2sint
   274                          	EXTERN	l_f32_f2uint
   275                          	EXTERN	l_f32_f2slong
   276                          	EXTERN	l_f32_f2ulong
   277                          	EXTERN	l_f32_ldexp
   278                          	EXTERN	l_f32_invf	;Only for math32
   279                          	EXTERN	l_f32_f16tof	;Convert _Float16 to float
   280                          	EXTERN	l_f32_ftof16	;Convert float to _Float16
   281                          
   282                          	; 64 bit float ABI
   283                          	EXTERN	l_f64_load
   284                          	EXTERN	l_f64_add
   285                          	EXTERN	l_f64_sub
   286                          	EXTERN	l_f64_mul
   287                          	EXTERN	l_f64_div
   288                          	EXTERN	l_f64_le
   289                          	EXTERN	l_f64_lt
   290                          	EXTERN	l_f64_ge
   291                          	EXTERN	l_f64_gt
   292                          	EXTERN	l_f64_eq
   293                          	EXTERN	l_f64_ne
   294                          	EXTERN	l_f64_negate
   295                          	EXTERN	l_f64_swap
   296                          	EXTERN	l_f64_store
   297                          	EXTERN	l_f64_dpush
   298                          	EXTERN	l_f64_dldpsh
   299                          	EXTERN	l_f64_dpush2
   300                          	EXTERN	l_f64_dpush3
   301                          	EXTERN	l_f64_schar2f
   302                          	EXTERN	l_f64_uchar2f
   303                          	EXTERN	l_f64_sint2f
   304                          	EXTERN	l_f64_uint2f
   305                          	EXTERN	l_f64_slong2f
   306                          	EXTERN	l_f64_ulong2f
   307                          	EXTERN	l_f64_f2sint
   308                          	EXTERN	l_f64_f2uint
   309                          	EXTERN	l_f64_f2slong
   310                          	EXTERN	l_f64_f2ulong
   311                          	EXTERN	l_f64_ldexp
   312                          	EXTERN	l_f64_f16tof	;Convert _Float16 to float
   313                          	EXTERN	l_f64_ftof16	;Convert float to _Float16
   314                          
   315                          
   316                          ;--------------------------------------------------
   317                          ; Routines for picking up variables from far memory
   318                          ;--------------------------------------------------
   319                          
   320                          	EXTERN	lp_gchar
   321                          	EXTERN	lp_guchar
   322                          	EXTERN	lp_gdoub
   323                          	EXTERN	lp_gint
   324                          	EXTERN	lp_glong
   325                          	EXTERN	lp_gptr
   326                          	EXTERN	lp_pchar
   327                          	EXTERN	lp_pdoub
   328                          	EXTERN	lp_pint
   329                          	EXTERN	lp_plong
   330                          	EXTERN	lp_pptr
   331                          
   332                          	EXTERN	l_farcall	; Long call
   333                          	EXTERN  l_far_mapaddr	; Map __banked to __far
   334                          
   335                          ;--------------------------------------------------
   336                          ; Routines for handling 16 bit fixed point for sccz80
   337                          ;--------------------------------------------------
   338                          
   339                          	EXTERN	l_f16_fix16tof
   340                          	EXTERN	l_f16_ftofix16
   341                          	EXTERN	l_f32_fix16tof
   342                          	EXTERN	l_f32_ftofix16
   343                          	EXTERN	l_f48_fix16tof
   344                                  EXTERN  l_f48_ftofix16s
   345                          	EXTERN	l_f48_ftofix16
   346                          	EXTERN	l_f64_fix16tof
   347                          	EXTERN	l_f64_ftofix16
   348                          	EXTERN	l_fix16_divu
   349                          	EXTERN	l_fix16_divs
   350                          	EXTERN	l_fix16_f2sint
   351                          	EXTERN	l_fix16_f2slond
   352                          	EXTERN	l_fix16_f2uint
   353                          	EXTERN	l_fix16_f2ulond
   354                                  EXTERN  l_fix16_uchar2f
   355                                  EXTERN  l_fix16_uint2f
   356                                  EXTERN  l_fix16_ulong2f
   357                                  EXTERN  l_fix16_schar2f
   358                                  EXTERN  l_fix16_sint2f
   359                                  EXTERN  l_fix16_slong2f
   360                          	EXTERN	l_fix16_inv
   361                          	EXTERN	l_fix16_mul
   362                          	EXTERN	l_fix16_mulu
   363                          	EXTERN	l_fix16_muls
   364                          	EXTERN	l_fix16_negate
   365                          
   366                          ;--------------------------------------------------
   367                          ; Routines for handling 64 bit integers for sccz80
   368                          ;--------------------------------------------------
   369                          
   370                          	EXTERN	__i64_acc
   371                          	EXTERN	l_i64_load
   372                          	EXTERN	l_i64_store
   373                          	EXTERN	l_i64_push
   374                          	EXTERN	l_i64_add
   375                          	EXTERN	l_i64_sub
   376                          	EXTERN	l_i64_mult
   377                          	EXTERN	l_i64_mult_u
   378                          	EXTERN	l_i64_mod
   379                          	EXTERN	l_i64_mod_u
   380                          	EXTERN	l_i64_div
   381                          	EXTERN	l_i64_div_u
   382                          	EXTERN	l_i64_or
   383                          	EXTERN	l_i64_xor
   384                          	EXTERN	l_i64_and
   385                          	EXTERN	l_i64_asr_u
   386                          	EXTERN	l_i64_asr_uo
   387                          	EXTERN	l_i64_asr
   388                          	EXTERN	l_i64_asro
   389                          	EXTERN	l_i64_asl
   390                          	EXTERN	l_i64_aslo
   391                          	EXTERN	l_i64_inc
   392                          	EXTERN	l_i64_dec
   393                          	EXTERN	l_i64_eq0
   394                          	EXTERN	l_i64_eq
   395                          	EXTERN	l_i64_ne
   396                          	EXTERN	l_i64_ge
   397                          	EXTERN	l_i64_gt
   398                          	EXTERN	l_i64_uge
   399                          	EXTERN	l_i64_ugt
   400                          	EXTERN	l_i64_le
   401                          	EXTERN	l_i64_lt
   402                          	EXTERN	l_i64_ule
   403                          	EXTERN	l_i64_ult
   404                          	EXTERN	l_i64_lneg
   405                          	EXTERN	l_i64_neg
   406                          	EXTERN	l_i64_com
   407                          	EXTERN	l_i64_case
   408                          	EXTERN	l_i64_push_under_int
   409                          	EXTERN	l_i64_push_under_int_mhl
   410                          	EXTERN	l_i64_copy
   411                          	EXTERN	l_i64_slong2i64
   412                          	EXTERN	l_i64_ulong2i64
   413                          	EXTERN	l_i64_sint2i64
   414                          	EXTERN	l_i64_uint2i64
   415                          	EXTERN	l_i64_u64_toi32
   416                          	EXTERN	l_i64_s64_toi32
   417                          
   418                          
   419                          ;-------------------
   420                          ; Routines for SDCC
   421                          ;-------------------
   422                          
   423                          	EXTERN	__divsint_rrx_s
   424                          	EXTERN	__divsint_rrx_hds
   425                          	EXTERN	__divuint_rrx_s
   426                          	EXTERN	__divuint_rrx_hds
   427                          	EXTERN	__divsuchar_rrx_s
   428                          	EXTERN	__divuschar_rrx_s
   429                          	EXTERN	__divuchar_rrx_s
   430                          	EXTERN	__divuchar_rrx_hds
   431                          	EXTERN	__moduchar_rrx_s
   432                          	EXTERN	__moduchar_rrx_hds
   433                          	EXTERN	__moduschar_rrx_s
   434                          	EXTERN	__modsuchar_rrx_s
   435                          	EXTERN	__modschar_rrx_s
   436                          	EXTERN	__modschar_rrx_hds
   437                          	EXTERN	__modsint_rrx_s
   438                          	EXTERN	__modsint_rrx_hds
   439                          	EXTERN	__moduint_rrx_s
   440                          	EXTERN	__moduint_rrx_hds
   441                          	EXTERN	__get_remainder
   442                          	EXTERN	__divunsigned
   443                          	EXTERN	__div_signexte
   444                          	EXTERN	__divu16
   445                          	EXTERN	__div16
   446                          	EXTERN	__div8
   447                          	EXTERN	__muluchar_rrx_s
   448                          	EXTERN	__muluchar_rrx_hds
   449                          	EXTERN	__mulsuchar_rrx_s
   450                          	EXTERN	__muluschar_rrx_s
   451                          	EXTERN	__mulschar_rrx_s
   452                          	EXTERN	__mulschar_rrx_hds
   453                          	EXTERN	__mulint_rrx_s
   454                          	EXTERN	__mulint_rrx_hds
   455                          	EXTERN	__mul16
   456                          	EXTERN	__rrulong_rrx_s
   457                          	EXTERN	__rrslong_rrx_s
   458                          	EXTERN	__rlslong_rrx_s
   459                          	EXTERN	__rlulong_rrx_s
   460                          	EXTERN	__muluchar
   461                          	EXTERN	__mulschar
   462                          
   463                          	EXTERN	l_push_di
   464                          	EXTERN	l_pop_ei
   465                          
   466                          	EXTERN	l_debug_push_frame
   467                          	EXTERN	l_debug_pop_frame
   468                          
main.c:
                                
                                
                                	C_LINE	0,"/Users/painfuldiodes/z88dk/lib/config/../..//include/stdlib.h"
/Users/painfuldiodes/z88dk/lib/config/../..//include/stdlib.h:
                                	C_LINE	0,"/Users/painfuldiodes/z88dk/lib/config/../..//include/sys/compiler.h"
/Users/painfuldiodes/z88dk/lib/config/../..//include/sys/compiler.h:
                                	C_LINE	0,"/Users/painfuldiodes/z88dk/lib/config/../..//include/sys/proto.h"
/Users/painfuldiodes/z88dk/lib/config/../..//include/sys/proto.h:
                                	C_LINE	6,"/Users/painfuldiodes/z88dk/lib/config/../..//include/sys/compiler.h"
/Users/painfuldiodes/z88dk/lib/config/../..//include/sys/compiler.h:
     6                          	C_LINE	11,"/Users/painfuldiodes/z88dk/lib/config/../..//include/stdlib.h"
/Users/painfuldiodes/z88dk/lib/config/../..//include/stdlib.h:
    11                          	C_LINE	0,"/Users/painfuldiodes/z88dk/lib/config/../..//include/sys/types.h"
/Users/painfuldiodes/z88dk/lib/config/../..//include/sys/types.h:
                                	C_LINE	5,"/Users/painfuldiodes/z88dk/lib/config/../..//include/sys/types.h"
     5                          	C_LINE	8,"/Users/painfuldiodes/z88dk/lib/config/../..//include/sys/types.h"
     8                          	C_LINE	12,"/Users/painfuldiodes/z88dk/lib/config/../..//include/sys/types.h"
    12                          	C_LINE	15,"/Users/painfuldiodes/z88dk/lib/config/../..//include/sys/types.h"
    15                          	C_LINE	18,"/Users/painfuldiodes/z88dk/lib/config/../..//include/sys/types.h"
    18                          	C_LINE	21,"/Users/painfuldiodes/z88dk/lib/config/../..//include/sys/types.h"
    21                          	C_LINE	24,"/Users/painfuldiodes/z88dk/lib/config/../..//include/sys/types.h"
    24                          	C_LINE	27,"/Users/painfuldiodes/z88dk/lib/config/../..//include/sys/types.h"
    27                          	C_LINE	30,"/Users/painfuldiodes/z88dk/lib/config/../..//include/sys/types.h"
    30                          	C_LINE	33,"/Users/painfuldiodes/z88dk/lib/config/../..//include/sys/types.h"
    33                          	C_LINE	36,"/Users/painfuldiodes/z88dk/lib/config/../..//include/sys/types.h"
    36                          	C_LINE	39,"/Users/painfuldiodes/z88dk/lib/config/../..//include/sys/types.h"
    39                          	C_LINE	42,"/Users/painfuldiodes/z88dk/lib/config/../..//include/sys/types.h"
    42                          	C_LINE	46,"/Users/painfuldiodes/z88dk/lib/config/../..//include/sys/types.h"
    46                          	C_LINE	47,"/Users/painfuldiodes/z88dk/lib/config/../..//include/sys/types.h"
    47                          	C_LINE	48,"/Users/painfuldiodes/z88dk/lib/config/../..//include/sys/types.h"
    48                          	C_LINE	50,"/Users/painfuldiodes/z88dk/lib/config/../..//include/sys/types.h"
    50                          	C_LINE	51,"/Users/painfuldiodes/z88dk/lib/config/../..//include/sys/types.h"
    51                          	C_LINE	52,"/Users/painfuldiodes/z88dk/lib/config/../..//include/sys/types.h"
    52                          	C_LINE	57,"/Users/painfuldiodes/z88dk/lib/config/../..//include/sys/types.h"
    57                          	C_LINE	60,"/Users/painfuldiodes/z88dk/lib/config/../..//include/sys/types.h"
    60                          	C_LINE	12,"/Users/painfuldiodes/z88dk/lib/config/../..//include/stdlib.h"
/Users/painfuldiodes/z88dk/lib/config/../..//include/stdlib.h:
    12                          	C_LINE	0,"/Users/painfuldiodes/z88dk/lib/config/../..//include/stdint.h"
/Users/painfuldiodes/z88dk/lib/config/../..//include/stdint.h:
                                	C_LINE	6,"/Users/painfuldiodes/z88dk/lib/config/../..//include/stdint.h"
     6                          	C_LINE	7,"/Users/painfuldiodes/z88dk/lib/config/../..//include/stdint.h"
     7                          	C_LINE	8,"/Users/painfuldiodes/z88dk/lib/config/../..//include/stdint.h"
     8                          	C_LINE	10,"/Users/painfuldiodes/z88dk/lib/config/../..//include/stdint.h"
    10                          	C_LINE	11,"/Users/painfuldiodes/z88dk/lib/config/../..//include/stdint.h"
    11                          	C_LINE	12,"/Users/painfuldiodes/z88dk/lib/config/../..//include/stdint.h"
    12                          	C_LINE	14,"/Users/painfuldiodes/z88dk/lib/config/../..//include/stdint.h"
    14                          	C_LINE	15,"/Users/painfuldiodes/z88dk/lib/config/../..//include/stdint.h"
    15                          	C_LINE	16,"/Users/painfuldiodes/z88dk/lib/config/../..//include/stdint.h"
    16                          	C_LINE	18,"/Users/painfuldiodes/z88dk/lib/config/../..//include/stdint.h"
    18                          	C_LINE	19,"/Users/painfuldiodes/z88dk/lib/config/../..//include/stdint.h"
    19                          	C_LINE	20,"/Users/painfuldiodes/z88dk/lib/config/../..//include/stdint.h"
    20                          	C_LINE	22,"/Users/painfuldiodes/z88dk/lib/config/../..//include/stdint.h"
    22                          	C_LINE	23,"/Users/painfuldiodes/z88dk/lib/config/../..//include/stdint.h"
    23                          	C_LINE	24,"/Users/painfuldiodes/z88dk/lib/config/../..//include/stdint.h"
    24                          	C_LINE	26,"/Users/painfuldiodes/z88dk/lib/config/../..//include/stdint.h"
    26                          	C_LINE	27,"/Users/painfuldiodes/z88dk/lib/config/../..//include/stdint.h"
    27                          	C_LINE	28,"/Users/painfuldiodes/z88dk/lib/config/../..//include/stdint.h"
    28                          	C_LINE	30,"/Users/painfuldiodes/z88dk/lib/config/../..//include/stdint.h"
    30                          	C_LINE	31,"/Users/painfuldiodes/z88dk/lib/config/../..//include/stdint.h"
    31                          	C_LINE	33,"/Users/painfuldiodes/z88dk/lib/config/../..//include/stdint.h"
    33                          	C_LINE	34,"/Users/painfuldiodes/z88dk/lib/config/../..//include/stdint.h"
    34                          	C_LINE	36,"/Users/painfuldiodes/z88dk/lib/config/../..//include/stdint.h"
    36                          	C_LINE	37,"/Users/painfuldiodes/z88dk/lib/config/../..//include/stdint.h"
    37                          	C_LINE	41,"/Users/painfuldiodes/z88dk/lib/config/../..//include/stdint.h"
    41                          	C_LINE	44,"/Users/painfuldiodes/z88dk/lib/config/../..//include/stdint.h"
    44                          	C_LINE	46,"/Users/painfuldiodes/z88dk/lib/config/../..//include/stdint.h"
    46                          	C_LINE	47,"/Users/painfuldiodes/z88dk/lib/config/../..//include/stdint.h"
    47                          	C_LINE	13,"/Users/painfuldiodes/z88dk/lib/config/../..//include/stdlib.h"
/Users/painfuldiodes/z88dk/lib/config/../..//include/stdlib.h:
    13                          	C_LINE	27,"/Users/painfuldiodes/z88dk/lib/config/../..//include/stdlib.h"
    27                          	C_LINE	29,"/Users/painfuldiodes/z88dk/lib/config/../..//include/stdlib.h"
    29                          	C_LINE	32,"/Users/painfuldiodes/z88dk/lib/config/../..//include/stdlib.h"
    32                          	C_LINE	34,"/Users/painfuldiodes/z88dk/lib/config/../..//include/stdlib.h"
    34                          	C_LINE	37,"/Users/painfuldiodes/z88dk/lib/config/../..//include/stdlib.h"
    37                          	C_LINE	39,"/Users/painfuldiodes/z88dk/lib/config/../..//include/stdlib.h"
    39                          	C_LINE	42,"/Users/painfuldiodes/z88dk/lib/config/../..//include/stdlib.h"
    42                          	C_LINE	44,"/Users/painfuldiodes/z88dk/lib/config/../..//include/stdlib.h"
    44                          	C_LINE	47,"/Users/painfuldiodes/z88dk/lib/config/../..//include/stdlib.h"
    47                          	C_LINE	49,"/Users/painfuldiodes/z88dk/lib/config/../..//include/stdlib.h"
    49                          	C_LINE	52,"/Users/painfuldiodes/z88dk/lib/config/../..//include/stdlib.h"
    52                          	C_LINE	54,"/Users/painfuldiodes/z88dk/lib/config/../..//include/stdlib.h"
    54                          	C_LINE	57,"/Users/painfuldiodes/z88dk/lib/config/../..//include/stdlib.h"
    57                          	C_LINE	59,"/Users/painfuldiodes/z88dk/lib/config/../..//include/stdlib.h"
    59                          	C_LINE	62,"/Users/painfuldiodes/z88dk/lib/config/../..//include/stdlib.h"
    62                          	C_LINE	64,"/Users/painfuldiodes/z88dk/lib/config/../..//include/stdlib.h"
    64                          	C_LINE	71,"/Users/painfuldiodes/z88dk/lib/config/../..//include/stdlib.h"
    71                          	C_LINE	73,"/Users/painfuldiodes/z88dk/lib/config/../..//include/stdlib.h"
    73                          	C_LINE	77,"/Users/painfuldiodes/z88dk/lib/config/../..//include/stdlib.h"
    77                          	C_LINE	79,"/Users/painfuldiodes/z88dk/lib/config/../..//include/stdlib.h"
    79                          	C_LINE	83,"/Users/painfuldiodes/z88dk/lib/config/../..//include/stdlib.h"
    83                          	C_LINE	85,"/Users/painfuldiodes/z88dk/lib/config/../..//include/stdlib.h"
    85                          	C_LINE	89,"/Users/painfuldiodes/z88dk/lib/config/../..//include/stdlib.h"
    89                          	C_LINE	91,"/Users/painfuldiodes/z88dk/lib/config/../..//include/stdlib.h"
    91                          	C_LINE	95,"/Users/painfuldiodes/z88dk/lib/config/../..//include/stdlib.h"
    95                          	C_LINE	97,"/Users/painfuldiodes/z88dk/lib/config/../..//include/stdlib.h"
    97                          	C_LINE	106,"/Users/painfuldiodes/z88dk/lib/config/../..//include/stdlib.h"
   106                          	C_LINE	107,"/Users/painfuldiodes/z88dk/lib/config/../..//include/stdlib.h"
   107                          	C_LINE	109,"/Users/painfuldiodes/z88dk/lib/config/../..//include/stdlib.h"
   109                          	C_LINE	0,"/Users/painfuldiodes/z88dk/lib/config/../..//include/malloc.h"
/Users/painfuldiodes/z88dk/lib/config/../..//include/malloc.h:
                                	C_LINE	47,"/Users/painfuldiodes/z88dk/lib/config/../..//include/malloc.h"
    47                          	C_LINE	48,"/Users/painfuldiodes/z88dk/lib/config/../..//include/malloc.h"
    48                          	C_LINE	49,"/Users/painfuldiodes/z88dk/lib/config/../..//include/malloc.h"
    49                          	C_LINE	50,"/Users/painfuldiodes/z88dk/lib/config/../..//include/malloc.h"
    50                          	C_LINE	51,"/Users/painfuldiodes/z88dk/lib/config/../..//include/malloc.h"
    51                          	C_LINE	52,"/Users/painfuldiodes/z88dk/lib/config/../..//include/malloc.h"
    52                          	C_LINE	53,"/Users/painfuldiodes/z88dk/lib/config/../..//include/malloc.h"
    53                          	C_LINE	58,"/Users/painfuldiodes/z88dk/lib/config/../..//include/malloc.h"
    58                          	C_LINE	59,"/Users/painfuldiodes/z88dk/lib/config/../..//include/malloc.h"
    59                          	C_LINE	60,"/Users/painfuldiodes/z88dk/lib/config/../..//include/malloc.h"
    60                          	C_LINE	61,"/Users/painfuldiodes/z88dk/lib/config/../..//include/malloc.h"
    61                          	C_LINE	62,"/Users/painfuldiodes/z88dk/lib/config/../..//include/malloc.h"
    62                          	C_LINE	63,"/Users/painfuldiodes/z88dk/lib/config/../..//include/malloc.h"
    63                          	C_LINE	108,"/Users/painfuldiodes/z88dk/lib/config/../..//include/malloc.h"
   108                          	C_LINE	109,"/Users/painfuldiodes/z88dk/lib/config/../..//include/malloc.h"
   109                          	C_LINE	110,"/Users/painfuldiodes/z88dk/lib/config/../..//include/malloc.h"
   110                          	C_LINE	111,"/Users/painfuldiodes/z88dk/lib/config/../..//include/malloc.h"
   111                          	C_LINE	112,"/Users/painfuldiodes/z88dk/lib/config/../..//include/malloc.h"
   112                          	C_LINE	113,"/Users/painfuldiodes/z88dk/lib/config/../..//include/malloc.h"
   113                          	C_LINE	114,"/Users/painfuldiodes/z88dk/lib/config/../..//include/malloc.h"
   114                          	C_LINE	115,"/Users/painfuldiodes/z88dk/lib/config/../..//include/malloc.h"
   115                          	C_LINE	116,"/Users/painfuldiodes/z88dk/lib/config/../..//include/malloc.h"
   116                          	C_LINE	117,"/Users/painfuldiodes/z88dk/lib/config/../..//include/malloc.h"
   117                          	C_LINE	118,"/Users/painfuldiodes/z88dk/lib/config/../..//include/malloc.h"
   118                          	C_LINE	119,"/Users/painfuldiodes/z88dk/lib/config/../..//include/malloc.h"
   119                          	C_LINE	120,"/Users/painfuldiodes/z88dk/lib/config/../..//include/malloc.h"
   120                          	C_LINE	129,"/Users/painfuldiodes/z88dk/lib/config/../..//include/malloc.h"
   129                          	C_LINE	130,"/Users/painfuldiodes/z88dk/lib/config/../..//include/malloc.h"
   130                          	C_LINE	131,"/Users/painfuldiodes/z88dk/lib/config/../..//include/malloc.h"
   131                          	C_LINE	134,"/Users/painfuldiodes/z88dk/lib/config/../..//include/malloc.h"
   134                          	C_LINE	135,"/Users/painfuldiodes/z88dk/lib/config/../..//include/malloc.h"
   135                          	C_LINE	137,"/Users/painfuldiodes/z88dk/lib/config/../..//include/malloc.h"
   137                          	C_LINE	141,"/Users/painfuldiodes/z88dk/lib/config/../..//include/malloc.h"
   141                          	C_LINE	138,"/Users/painfuldiodes/z88dk/lib/config/../..//include/stdlib.h"
/Users/painfuldiodes/z88dk/lib/config/../..//include/stdlib.h:
   138                          	C_LINE	149,"/Users/painfuldiodes/z88dk/lib/config/../..//include/stdlib.h"
   149                          	C_LINE	150,"/Users/painfuldiodes/z88dk/lib/config/../..//include/stdlib.h"
   150                          	C_LINE	153,"/Users/painfuldiodes/z88dk/lib/config/../..//include/stdlib.h"
   153                          	C_LINE	154,"/Users/painfuldiodes/z88dk/lib/config/../..//include/stdlib.h"
   154                          	C_LINE	160,"/Users/painfuldiodes/z88dk/lib/config/../..//include/stdlib.h"
   160                          	C_LINE	161,"/Users/painfuldiodes/z88dk/lib/config/../..//include/stdlib.h"
   161                          	C_LINE	162,"/Users/painfuldiodes/z88dk/lib/config/../..//include/stdlib.h"
   162                          	C_LINE	163,"/Users/painfuldiodes/z88dk/lib/config/../..//include/stdlib.h"
   163                          	C_LINE	167,"/Users/painfuldiodes/z88dk/lib/config/../..//include/stdlib.h"
   167                          	C_LINE	170,"/Users/painfuldiodes/z88dk/lib/config/../..//include/stdlib.h"
   170                          	C_LINE	171,"/Users/painfuldiodes/z88dk/lib/config/../..//include/stdlib.h"
   171                          	C_LINE	172,"/Users/painfuldiodes/z88dk/lib/config/../..//include/stdlib.h"
   172                          	C_LINE	173,"/Users/painfuldiodes/z88dk/lib/config/../..//include/stdlib.h"
   173                          	C_LINE	174,"/Users/painfuldiodes/z88dk/lib/config/../..//include/stdlib.h"
   174                          	C_LINE	186,"/Users/painfuldiodes/z88dk/lib/config/../..//include/stdlib.h"
   186                          	C_LINE	187,"/Users/painfuldiodes/z88dk/lib/config/../..//include/stdlib.h"
   187                          	C_LINE	188,"/Users/painfuldiodes/z88dk/lib/config/../..//include/stdlib.h"
   188                          	C_LINE	189,"/Users/painfuldiodes/z88dk/lib/config/../..//include/stdlib.h"
   189                          	C_LINE	193,"/Users/painfuldiodes/z88dk/lib/config/../..//include/stdlib.h"
   193                          	C_LINE	194,"/Users/painfuldiodes/z88dk/lib/config/../..//include/stdlib.h"
   194                          	C_LINE	196,"/Users/painfuldiodes/z88dk/lib/config/../..//include/stdlib.h"
   196                          	C_LINE	197,"/Users/painfuldiodes/z88dk/lib/config/../..//include/stdlib.h"
   197                          	C_LINE	209,"/Users/painfuldiodes/z88dk/lib/config/../..//include/stdlib.h"
   209                          	C_LINE	217,"/Users/painfuldiodes/z88dk/lib/config/../..//include/stdlib.h"
   217                          	C_LINE	225,"/Users/painfuldiodes/z88dk/lib/config/../..//include/stdlib.h"
   225                          	C_LINE	233,"/Users/painfuldiodes/z88dk/lib/config/../..//include/stdlib.h"
   233                          	C_LINE	241,"/Users/painfuldiodes/z88dk/lib/config/../..//include/stdlib.h"
   241                          	C_LINE	243,"/Users/painfuldiodes/z88dk/lib/config/../..//include/stdlib.h"
   243                          	C_LINE	247,"/Users/painfuldiodes/z88dk/lib/config/../..//include/stdlib.h"
   247                          	C_LINE	249,"/Users/painfuldiodes/z88dk/lib/config/../..//include/stdlib.h"
   249                          	C_LINE	253,"/Users/painfuldiodes/z88dk/lib/config/../..//include/stdlib.h"
   253                          	C_LINE	255,"/Users/painfuldiodes/z88dk/lib/config/../..//include/stdlib.h"
   255                          	C_LINE	259,"/Users/painfuldiodes/z88dk/lib/config/../..//include/stdlib.h"
   259                          	C_LINE	261,"/Users/painfuldiodes/z88dk/lib/config/../..//include/stdlib.h"
   261                          	C_LINE	270,"/Users/painfuldiodes/z88dk/lib/config/../..//include/stdlib.h"
   270                          	C_LINE	272,"/Users/painfuldiodes/z88dk/lib/config/../..//include/stdlib.h"
   272                          	C_LINE	275,"/Users/painfuldiodes/z88dk/lib/config/../..//include/stdlib.h"
   275                          	C_LINE	277,"/Users/painfuldiodes/z88dk/lib/config/../..//include/stdlib.h"
   277                          	C_LINE	281,"/Users/painfuldiodes/z88dk/lib/config/../..//include/stdlib.h"
   281                          	C_LINE	283,"/Users/painfuldiodes/z88dk/lib/config/../..//include/stdlib.h"
   283                          	C_LINE	299,"/Users/painfuldiodes/z88dk/lib/config/../..//include/stdlib.h"
   299                          	C_LINE	301,"/Users/painfuldiodes/z88dk/lib/config/../..//include/stdlib.h"
   301                          	C_LINE	304,"/Users/painfuldiodes/z88dk/lib/config/../..//include/stdlib.h"
   304                          	C_LINE	306,"/Users/painfuldiodes/z88dk/lib/config/../..//include/stdlib.h"
   306                          	C_LINE	314,"/Users/painfuldiodes/z88dk/lib/config/../..//include/stdlib.h"
   314                          	C_LINE	318,"/Users/painfuldiodes/z88dk/lib/config/../..//include/stdlib.h"
   318                          	C_LINE	319,"/Users/painfuldiodes/z88dk/lib/config/../..//include/stdlib.h"
   319                          	C_LINE	322,"/Users/painfuldiodes/z88dk/lib/config/../..//include/stdlib.h"
   322                          	C_LINE	323,"/Users/painfuldiodes/z88dk/lib/config/../..//include/stdlib.h"
   323                          	C_LINE	327,"/Users/painfuldiodes/z88dk/lib/config/../..//include/stdlib.h"
   327                          	C_LINE	329,"/Users/painfuldiodes/z88dk/lib/config/../..//include/stdlib.h"
   329                          	C_LINE	332,"/Users/painfuldiodes/z88dk/lib/config/../..//include/stdlib.h"
   332                          	C_LINE	333,"/Users/painfuldiodes/z88dk/lib/config/../..//include/stdlib.h"
   333                          	C_LINE	342,"/Users/painfuldiodes/z88dk/lib/config/../..//include/stdlib.h"
   342                          	C_LINE	344,"/Users/painfuldiodes/z88dk/lib/config/../..//include/stdlib.h"
   344                          	C_LINE	346,"/Users/painfuldiodes/z88dk/lib/config/../..//include/stdlib.h"
   346                          	C_LINE	349,"/Users/painfuldiodes/z88dk/lib/config/../..//include/stdlib.h"
   349                          	C_LINE	351,"/Users/painfuldiodes/z88dk/lib/config/../..//include/stdlib.h"
   351                          	C_LINE	363,"/Users/painfuldiodes/z88dk/lib/config/../..//include/stdlib.h"
   363                          	C_LINE	365,"/Users/painfuldiodes/z88dk/lib/config/../..//include/stdlib.h"
   365                          	C_LINE	369,"/Users/painfuldiodes/z88dk/lib/config/../..//include/stdlib.h"
   369                          	C_LINE	372,"/Users/painfuldiodes/z88dk/lib/config/../..//include/stdlib.h"
   372                          	C_LINE	6,"main.c"
main.c:
     6                          	C_LINE	0,"/Users/painfuldiodes/z88dk/lib/config/../..//include/stdio.h"
/Users/painfuldiodes/z88dk/lib/config/../..//include/stdio.h:
                                	C_LINE	0,"/Users/painfuldiodes/z88dk/lib/config/../..//include/fcntl.h"
/Users/painfuldiodes/z88dk/lib/config/../..//include/fcntl.h:
                                	C_LINE	14,"/Users/painfuldiodes/z88dk/lib/config/../..//include/fcntl.h"
    14                          	C_LINE	16,"/Users/painfuldiodes/z88dk/lib/config/../..//include/fcntl.h"
    16                          	C_LINE	17,"/Users/painfuldiodes/z88dk/lib/config/../..//include/fcntl.h"
    17                          	C_LINE	19,"/Users/painfuldiodes/z88dk/lib/config/../..//include/fcntl.h"
    19                          	C_LINE	21,"/Users/painfuldiodes/z88dk/lib/config/../..//include/fcntl.h"
    21                          	C_LINE	22,"/Users/painfuldiodes/z88dk/lib/config/../..//include/fcntl.h"
    22                          	C_LINE	25,"/Users/painfuldiodes/z88dk/lib/config/../..//include/fcntl.h"
    25                          	C_LINE	28,"/Users/painfuldiodes/z88dk/lib/config/../..//include/fcntl.h"
    28                          	C_LINE	29,"/Users/painfuldiodes/z88dk/lib/config/../..//include/fcntl.h"
    29                          	C_LINE	31,"/Users/painfuldiodes/z88dk/lib/config/../..//include/fcntl.h"
    31                          	C_LINE	37,"/Users/painfuldiodes/z88dk/lib/config/../..//include/fcntl.h"
    37                          	C_LINE	38,"/Users/painfuldiodes/z88dk/lib/config/../..//include/fcntl.h"
    38                          	C_LINE	39,"/Users/painfuldiodes/z88dk/lib/config/../..//include/fcntl.h"
    39                          	C_LINE	42,"/Users/painfuldiodes/z88dk/lib/config/../..//include/fcntl.h"
    42                          	C_LINE	52,"/Users/painfuldiodes/z88dk/lib/config/../..//include/fcntl.h"
    52                          	C_LINE	60,"/Users/painfuldiodes/z88dk/lib/config/../..//include/fcntl.h"
    60                          	C_LINE	73,"/Users/painfuldiodes/z88dk/lib/config/../..//include/fcntl.h"
    73                          	C_LINE	74,"/Users/painfuldiodes/z88dk/lib/config/../..//include/fcntl.h"
    74                          	C_LINE	76,"/Users/painfuldiodes/z88dk/lib/config/../..//include/fcntl.h"
    76                          	C_LINE	78,"/Users/painfuldiodes/z88dk/lib/config/../..//include/fcntl.h"
    78                          	C_LINE	78,"/Users/painfuldiodes/z88dk/lib/config/../..//include/stdio.h"
/Users/painfuldiodes/z88dk/lib/config/../..//include/stdio.h:
    78                          	C_LINE	85,"/Users/painfuldiodes/z88dk/lib/config/../..//include/stdio.h"
    85                          	C_LINE	118,"/Users/painfuldiodes/z88dk/lib/config/../..//include/stdio.h"
   118                          	C_LINE	127,"/Users/painfuldiodes/z88dk/lib/config/../..//include/stdio.h"
   127                          	C_LINE	131,"/Users/painfuldiodes/z88dk/lib/config/../..//include/stdio.h"
   131                          	C_LINE	132,"/Users/painfuldiodes/z88dk/lib/config/../..//include/stdio.h"
   132                          	C_LINE	138,"/Users/painfuldiodes/z88dk/lib/config/../..//include/stdio.h"
   138                          	C_LINE	141,"/Users/painfuldiodes/z88dk/lib/config/../..//include/stdio.h"
   141                          	C_LINE	145,"/Users/painfuldiodes/z88dk/lib/config/../..//include/stdio.h"
   145                          	C_LINE	146,"/Users/painfuldiodes/z88dk/lib/config/../..//include/stdio.h"
   146                          	C_LINE	147,"/Users/painfuldiodes/z88dk/lib/config/../..//include/stdio.h"
   147                          	C_LINE	149,"/Users/painfuldiodes/z88dk/lib/config/../..//include/stdio.h"
   149                          	C_LINE	150,"/Users/painfuldiodes/z88dk/lib/config/../..//include/stdio.h"
   150                          	C_LINE	154,"/Users/painfuldiodes/z88dk/lib/config/../..//include/stdio.h"
   154                          	C_LINE	159,"/Users/painfuldiodes/z88dk/lib/config/../..//include/stdio.h"
   159                          	C_LINE	160,"/Users/painfuldiodes/z88dk/lib/config/../..//include/stdio.h"
   160                          	C_LINE	162,"/Users/painfuldiodes/z88dk/lib/config/../..//include/stdio.h"
   162                          	C_LINE	169,"/Users/painfuldiodes/z88dk/lib/config/../..//include/stdio.h"
   169                          	C_LINE	171,"/Users/painfuldiodes/z88dk/lib/config/../..//include/stdio.h"
   171                          	C_LINE	173,"/Users/painfuldiodes/z88dk/lib/config/../..//include/stdio.h"
   173                          	C_LINE	178,"/Users/painfuldiodes/z88dk/lib/config/../..//include/stdio.h"
   178                          	C_LINE	180,"/Users/painfuldiodes/z88dk/lib/config/../..//include/stdio.h"
   180                          	C_LINE	184,"/Users/painfuldiodes/z88dk/lib/config/../..//include/stdio.h"
   184                          	C_LINE	187,"/Users/painfuldiodes/z88dk/lib/config/../..//include/stdio.h"
   187                          	C_LINE	189,"/Users/painfuldiodes/z88dk/lib/config/../..//include/stdio.h"
   189                          	C_LINE	191,"/Users/painfuldiodes/z88dk/lib/config/../..//include/stdio.h"
   191                          	C_LINE	195,"/Users/painfuldiodes/z88dk/lib/config/../..//include/stdio.h"
   195                          	C_LINE	197,"/Users/painfuldiodes/z88dk/lib/config/../..//include/stdio.h"
   197                          	C_LINE	200,"/Users/painfuldiodes/z88dk/lib/config/../..//include/stdio.h"
   200                          	C_LINE	206,"/Users/painfuldiodes/z88dk/lib/config/../..//include/stdio.h"
   206                          	C_LINE	207,"/Users/painfuldiodes/z88dk/lib/config/../..//include/stdio.h"
   207                          	C_LINE	211,"/Users/painfuldiodes/z88dk/lib/config/../..//include/stdio.h"
   211                          	C_LINE	216,"/Users/painfuldiodes/z88dk/lib/config/../..//include/stdio.h"
   216                          	C_LINE	217,"/Users/painfuldiodes/z88dk/lib/config/../..//include/stdio.h"
   217                          	C_LINE	220,"/Users/painfuldiodes/z88dk/lib/config/../..//include/stdio.h"
   220                          	C_LINE	222,"/Users/painfuldiodes/z88dk/lib/config/../..//include/stdio.h"
   222                          	C_LINE	223,"/Users/painfuldiodes/z88dk/lib/config/../..//include/stdio.h"
   223                          	C_LINE	224,"/Users/painfuldiodes/z88dk/lib/config/../..//include/stdio.h"
   224                          	C_LINE	225,"/Users/painfuldiodes/z88dk/lib/config/../..//include/stdio.h"
   225                          	C_LINE	226,"/Users/painfuldiodes/z88dk/lib/config/../..//include/stdio.h"
   226                          	C_LINE	227,"/Users/painfuldiodes/z88dk/lib/config/../..//include/stdio.h"
   227                          	C_LINE	234,"/Users/painfuldiodes/z88dk/lib/config/../..//include/stdio.h"
   234                          	C_LINE	235,"/Users/painfuldiodes/z88dk/lib/config/../..//include/stdio.h"
   235                          	C_LINE	236,"/Users/painfuldiodes/z88dk/lib/config/../..//include/stdio.h"
   236                          	C_LINE	241,"/Users/painfuldiodes/z88dk/lib/config/../..//include/stdio.h"
   241                          	C_LINE	247,"/Users/painfuldiodes/z88dk/lib/config/../..//include/stdio.h"
   247                          	C_LINE	248,"/Users/painfuldiodes/z88dk/lib/config/../..//include/stdio.h"
   248                          	C_LINE	249,"/Users/painfuldiodes/z88dk/lib/config/../..//include/stdio.h"
   249                          	C_LINE	250,"/Users/painfuldiodes/z88dk/lib/config/../..//include/stdio.h"
   250                          	C_LINE	251,"/Users/painfuldiodes/z88dk/lib/config/../..//include/stdio.h"
   251                          	C_LINE	258,"/Users/painfuldiodes/z88dk/lib/config/../..//include/stdio.h"
   258                          	C_LINE	263,"/Users/painfuldiodes/z88dk/lib/config/../..//include/stdio.h"
   263                          	C_LINE	268,"/Users/painfuldiodes/z88dk/lib/config/../..//include/stdio.h"
   268                          	C_LINE	271,"/Users/painfuldiodes/z88dk/lib/config/../..//include/stdio.h"
   271                          	C_LINE	274,"/Users/painfuldiodes/z88dk/lib/config/../..//include/stdio.h"
   274                          	C_LINE	277,"/Users/painfuldiodes/z88dk/lib/config/../..//include/stdio.h"
   277                          	C_LINE	279,"/Users/painfuldiodes/z88dk/lib/config/../..//include/stdio.h"
   279                          	C_LINE	282,"/Users/painfuldiodes/z88dk/lib/config/../..//include/stdio.h"
   282                          	C_LINE	284,"/Users/painfuldiodes/z88dk/lib/config/../..//include/stdio.h"
   284                          	C_LINE	285,"/Users/painfuldiodes/z88dk/lib/config/../..//include/stdio.h"
   285                          	C_LINE	287,"/Users/painfuldiodes/z88dk/lib/config/../..//include/stdio.h"
   287                          	C_LINE	289,"/Users/painfuldiodes/z88dk/lib/config/../..//include/stdio.h"
   289                          	C_LINE	293,"/Users/painfuldiodes/z88dk/lib/config/../..//include/stdio.h"
   293                          	C_LINE	295,"/Users/painfuldiodes/z88dk/lib/config/../..//include/stdio.h"
   295                          	C_LINE	299,"/Users/painfuldiodes/z88dk/lib/config/../..//include/stdio.h"
   299                          	C_LINE	302,"/Users/painfuldiodes/z88dk/lib/config/../..//include/stdio.h"
   302                          	C_LINE	308,"/Users/painfuldiodes/z88dk/lib/config/../..//include/stdio.h"
   308                          	C_LINE	310,"/Users/painfuldiodes/z88dk/lib/config/../..//include/stdio.h"
   310                          	C_LINE	313,"/Users/painfuldiodes/z88dk/lib/config/../..//include/stdio.h"
   313                          	C_LINE	315,"/Users/painfuldiodes/z88dk/lib/config/../..//include/stdio.h"
   315                          	C_LINE	317,"/Users/painfuldiodes/z88dk/lib/config/../..//include/stdio.h"
   317                          	C_LINE	7,"main.c"
main.c:
     7                          	C_LINE	0,"/Users/painfuldiodes/z88dk/lib/config/../..//include/stdbool.h"
/Users/painfuldiodes/z88dk/lib/config/../..//include/stdbool.h:
                                	C_LINE	6,"/Users/painfuldiodes/z88dk/lib/config/../..//include/stdbool.h"
     6                          	C_LINE	8,"main.c"
main.c:
     8                          	C_LINE	0,"terminal.h"
terminal.h:
                                	C_LINE	1,"terminal.h"
     1                          	SECTION	code_compiler
     1                          
     1                          ; Function clearScreen flags 0x00000200 __smallc
     1                          ; void clearScreen()
     1                          	C_LINE	1,"terminal.h::clearScreen::0::0"
terminal.h::clearScreen::0::0:
     1                          ._clearScreen
     1  0000  210000            	ld	hl,i_1+0
     1  0003  e5                	push	hl
     1  0004  3e01              	ld	a,1
     1  0006  cd0000            	call	printf
     1  0009  c1                	pop	bc
     1  000a  c9                	ret
     1                          
     1                          
     1                          	C_LINE	5,"terminal.h::clearScreen::0::1"
terminal.h::clearScreen::0::1:
     5                          
     5                          ; Function setCursor flags 0x00000200 __smallc
     5                          ; void setCursor(int x, int y)
     5                          ; parameter 'int y' at sp+2 size(2)
     5                          ; parameter 'int x' at sp+4 size(2)
     5                          	C_LINE	5,"terminal.h::setCursor::0::1"
terminal.h::setCursor::0::1:
     5                          ._setCursor
     5  000b  210500            	ld	hl,i_1+5
     5  000e  e5                	push	hl
     5  000f  210400            	ld	hl,4	;const
     5  0012  cd0000            	call	l_gintspsp	;
     5  0015  cd0000            	call	l_gint8sp	;
     5  0018  e5                	push	hl
     5  0019  3e03              	ld	a,3
     5  001b  cd0000            	call	printf
     5  001e  c1                	pop	bc
     5  001f  c1                	pop	bc
     5  0020  c1                	pop	bc
     5  0021  c9                	ret
     5                          
     5                          
     5                          	C_LINE	9,"terminal.h::setCursor::0::2"
terminal.h::setCursor::0::2:
     9                          
     9                          ; Function setCursorHome flags 0x00000200 __smallc
     9                          ; void setCursorHome()
     9                          	C_LINE	9,"terminal.h::setCursorHome::0::2"
terminal.h::setCursorHome::0::2:
     9                          ._setCursorHome
     9  0022  210e00            	ld	hl,i_1+14
     9  0025  e5                	push	hl
     9  0026  3e01              	ld	a,1
     9  0028  cd0000            	call	printf
     9  002b  c1                	pop	bc
     9  002c  c9                	ret
     9                          
     9                          
     9                          	C_LINE	13,"terminal.h::setCursorHome::0::3"
terminal.h::setCursorHome::0::3:
    13                          
    13                          ; Function cursorMove flags 0x00000200 __smallc
    13                          ; void cursorMove(char dir, int dist)
    13                          ; parameter 'int dist' at sp+2 size(2)
    13                          ; parameter 'char dir' at sp+4 size(1)
    13                          	C_LINE	13,"terminal.h::cursorMove::0::3"
terminal.h::cursorMove::0::3:
    13                          ._cursorMove
    13  002d  211200            	ld	hl,i_1+18
    13  0030  e5                	push	hl
    13  0031  210400            	ld	hl,4	;const
    13  0034  cd0000            	call	l_gintspsp	;
    13  0037  210800            	ld	hl,8	;const
    13  003a  39                	add	hl,sp
    13  003b  cd0000            	call	l_gchar
    13  003e  e5                	push	hl
    13  003f  3e03              	ld	a,3
    13  0041  cd0000            	call	printf
    13  0044  c1                	pop	bc
    13  0045  c1                	pop	bc
    13  0046  c1                	pop	bc
    13  0047  c9                	ret
    13                          
    13                          
    13                          	C_LINE	17,"terminal.h::cursorMove::0::4"
terminal.h::cursorMove::0::4:
    17                          
    17                          ; Function hideCursor flags 0x00000200 __smallc
    17                          ; void hideCursor()
    17                          	C_LINE	17,"terminal.h::hideCursor::0::4"
terminal.h::hideCursor::0::4:
    17                          ._hideCursor
    17  0048  211900            	ld	hl,i_1+25
    17  004b  e5                	push	hl
    17  004c  3e01              	ld	a,1
    17  004e  cd0000            	call	printf
    17  0051  c1                	pop	bc
    17  0052  c9                	ret
    17                          
    17                          
    17                          	C_LINE	21,"terminal.h::hideCursor::0::5"
terminal.h::hideCursor::0::5:
    21                          
    21                          ; Function showCursor flags 0x00000200 __smallc
    21                          ; void showCursor()
    21                          	C_LINE	21,"terminal.h::showCursor::0::5"
terminal.h::showCursor::0::5:
    21                          ._showCursor
    21  0053  212000            	ld	hl,i_1+32
    21  0056  e5                	push	hl
    21  0057  3e01              	ld	a,1
    21  0059  cd0000            	call	printf
    21  005c  c1                	pop	bc
    21  005d  c9                	ret
    21                          
    21                          
    21                          	C_LINE	9,"main.c::showCursor::0::6"
main.c::showCursor::0::6:
     9                          	C_LINE	0,"../lib/marvin.h::showCursor::0::6"
../lib/marvin.h::showCursor::0::6:
                                	C_LINE	1,"../lib/marvin.h::showCursor::0::6"
     1                          	C_LINE	2,"../lib/marvin.h::showCursor::0::6"
     2                          	C_LINE	3,"../lib/marvin.h::showCursor::0::6"
     3                          	C_LINE	4,"../lib/marvin.h::showCursor::0::6"
     4                          	C_LINE	10,"main.c::showCursor::0::6"
main.c::showCursor::0::6:
    10                          	C_LINE	13,"main.c::showCursor::0::6"
    13                          	C_LINE	14,"main.c::showCursor::0::6"
    14                          	C_LINE	15,"main.c::showCursor::0::6"
    15                          	C_LINE	16,"main.c::showCursor::0::6"
    16                          	C_LINE	17,"main.c::showCursor::0::6"
    17                          	C_LINE	18,"main.c::showCursor::0::6"
    18                          	C_LINE	19,"main.c::showCursor::0::6"
    19                          	C_LINE	20,"main.c::showCursor::0::6"
    20                          	C_LINE	21,"main.c::showCursor::0::6"
    21                          	C_LINE	22,"main.c::showCursor::0::6"
    22                          	C_LINE	23,"main.c::showCursor::0::6"
    23                          	C_LINE	24,"main.c::showCursor::0::6"
    24                          	C_LINE	25,"main.c::showCursor::0::6"
    25                          	C_LINE	32,"main.c::showCursor::0::6"
    32                          	C_LINE	33,"main.c::showCursor::0::6"
    33                          	C_LINE	35,"main.c::showCursor::0::6"
    35                          	C_LINE	36,"main.c::showCursor::0::6"
    36                          	C_LINE	40,"main.c::showCursor::0::6"
    40                          
    40                          ; Function main flags 0x00000000 __stdc
    40                          ; int main()
    40                          	C_LINE	41,"main.c::main::0::7"
main.c::main::0::7:
    41                          ._main
    41  005e  3b                	dec	sp
    41  005f  cd0000            	call	_clearScreen
    41  0062  cd4800            	call	_hideCursor
    41  0065  cd0501            	call	_splash
    41                          .i_2
    41  0068  cdb402            	call	_setupGame
    41                          .i_4
    41  006b  2a9401            	ld	hl,(_alive)
    41  006e  2600              	ld	h,0
    41  0070  7c                	ld	a,h
    41  0071  b5                	or	l
    41  0072  ca7b00            	jp	z,i_5	;
    41  0075  cd1503            	call	_gameLoop
    41  0078  c36b00            	jp	i_4	;EOS
    41                          .i_5
    41  007b  cdb900            	call	_gameOver
    41                          .i_6
    41  007e  210000            	ld	hl,0	;const
    41  0081  39                	add	hl,sp
    41  0082  e5                	push	hl
    41  0083  cd0000            	call	_marvin_readchar
    41  0086  7d                	ld	a,l
    41  0087  d1                	pop	de
    41  0088  12                	ld	(de),a
    41  0089  210000            	ld	hl,0	;const
    41  008c  39                	add	hl,sp
    41  008d  cd0000            	call	l_gchar
    41  0090  117100            	ld	de,113
    41  0093  a7                	and	a
    41  0094  ed52              	sbc	hl,de
    41  0096  c2a400            	jp	nz,i_8	;
    41  0099  cd0000            	call	_clearScreen
    41  009c  cd5300            	call	_showCursor
    41  009f  cd2200            	call	_setCursorHome
    41  00a2  33                	inc	sp
    41  00a3  c9                	ret
    41                          
    41                          
    41                          .i_8
    41  00a4  210000            	ld	hl,0	;const
    41  00a7  39                	add	hl,sp
    41  00a8  cd0000            	call	l_gchar
    41  00ab  117000            	ld	de,112
    41  00ae  a7                	and	a
    41  00af  ed52              	sbc	hl,de
    41  00b1  c27e00            	jp	nz,i_6	;EOS
    41  00b4  c36800            	jp	i_2	;EOS
    41                          .i_3
    41  00b7  33                	inc	sp
    41  00b8  c9                	ret
    41                          
    41                          
    41                          	C_LINE	67,"main.c::main::0::12"
main.c::main::0::12:
    67                          
    67                          ; Function gameOver flags 0x00000200 __smallc
    67                          ; void gameOver()
    67                          	C_LINE	67,"main.c::gameOver::0::12"
main.c::gameOver::0::12:
    67                          ._gameOver
    67  00b9  cd0000            	call	_clearScreen
    67  00bc  cd4005            	call	_drawSnake
    67  00bf  cdd706            	call	_printScore
    67  00c2  211400            	ld	hl,20	;const
    67  00c5  e5                	push	hl
    67  00c6  2e0a              	ld	l,10
    67  00c8  e5                	push	hl
    67  00c9  cd0b00            	call	_setCursor
    67  00cc  c1                	pop	bc
    67  00cd  c1                	pop	bc
    67  00ce  212700            	ld	hl,i_1+39
    67  00d1  e5                	push	hl
    67  00d2  3e01              	ld	a,1
    67  00d4  cd0000            	call	printf
    67  00d7  c1                	pop	bc
    67  00d8  211400            	ld	hl,20	;const
    67  00db  e5                	push	hl
    67  00dc  2e0c              	ld	l,12
    67  00de  e5                	push	hl
    67  00df  cd0b00            	call	_setCursor
    67  00e2  c1                	pop	bc
    67  00e3  c1                	pop	bc
    67  00e4  213100            	ld	hl,i_1+49
    67  00e7  e5                	push	hl
    67  00e8  3e01              	ld	a,1
    67  00ea  cd0000            	call	printf
    67  00ed  c1                	pop	bc
    67  00ee  211400            	ld	hl,20	;const
    67  00f1  e5                	push	hl
    67  00f2  2e0d              	ld	l,13
    67  00f4  e5                	push	hl
    67  00f5  cd0b00            	call	_setCursor
    67  00f8  c1                	pop	bc
    67  00f9  c1                	pop	bc
    67  00fa  214100            	ld	hl,i_1+65
    67  00fd  e5                	push	hl
    67  00fe  3e01              	ld	a,1
    67  0100  cd0000            	call	printf
    67  0103  c1                	pop	bc
    67  0104  c9                	ret
    67                          
    67                          
    67                          	C_LINE	79,"main.c::gameOver::0::13"
main.c::gameOver::0::13:
    79                          
    79                          ; Function splash flags 0x00000200 __smallc
    79                          ; void splash()
    79                          	C_LINE	79,"main.c::splash::0::13"
main.c::splash::0::13:
    79                          ._splash
    79  0105  210000            	ld	hl,0	;const
    79  0108  229501            	ld	(_seed),hl
    79  010b  212300            	ld	hl,35	;const
    79  010e  e5                	push	hl
    79  010f  2e0d              	ld	l,13
    79  0111  e5                	push	hl
    79  0112  cd0b00            	call	_setCursor
    79  0115  c1                	pop	bc
    79  0116  c1                	pop	bc
    79  0117  215400            	ld	hl,i_1+84
    79  011a  e5                	push	hl
    79  011b  3e01              	ld	a,1
    79  011d  cd0000            	call	printf
    79  0120  c1                	pop	bc
    79  0121  211c00            	ld	hl,28	;const
    79  0124  e5                	push	hl
    79  0125  2e10              	ld	l,16
    79  0127  e5                	push	hl
    79  0128  cd0b00            	call	_setCursor
    79  012b  c1                	pop	bc
    79  012c  c1                	pop	bc
    79  012d  215b00            	ld	hl,i_1+91
    79  0130  e5                	push	hl
    79  0131  3e01              	ld	a,1
    79  0133  cd0000            	call	printf
    79  0136  c1                	pop	bc
    79  0137  211c00            	ld	hl,28	;const
    79  013a  e5                	push	hl
    79  013b  2e12              	ld	l,18
    79  013d  e5                	push	hl
    79  013e  cd0b00            	call	_setCursor
    79  0141  c1                	pop	bc
    79  0142  c1                	pop	bc
    79  0143  217200            	ld	hl,i_1+114
    79  0146  e5                	push	hl
    79  0147  3e01              	ld	a,1
    79  0149  cd0000            	call	printf
    79  014c  c1                	pop	bc
    79  014d  cd2200            	call	_setCursorHome
    79  0150  210000            	ld	hl,0	;const
    79  0153  e5                	push	hl
    79  0154  c35a01            	jp	i_12	;EOS
    79                          .i_10
    79  0157  e1                	pop	hl
    79  0158  23                	inc	hl
    79  0159  e5                	push	hl
    79                          .i_12
    79  015a  e1                	pop	hl
    79  015b  e5                	push	hl
    79  015c  7d                	ld	a,l
    79  015d  d60c              	sub	12
    79  015f  7c                	ld	a,h
    79  0160  17                	rla
    79  0161  3f                	ccf
    79  0162  1f                	rra
    79  0163  de80              	sbc	128
    79  0165  d29101            	jp	nc,i_11	;
    79  0168  e1                	pop	hl
    79  0169  e5                	push	hl
    79  016a  23                	inc	hl
    79  016b  d1                	pop	de
    79  016c  d5                	push	de
    79  016d  e5                	push	hl
    79  016e  215000            	ld	hl,80
    79  0171  a7                	and	a
    79  0172  ed52              	sbc	hl,de
    79  0174  e5                	push	hl
    79  0175  cd0000            	call	l_gint4sp	;
    79  0178  23                	inc	hl
    79  0179  e5                	push	hl
    79  017a  cd0000            	call	l_gint6sp	;
    79  017d  111800            	ld	de,24
    79  0180  eb                	ex	de,hl
    79  0181  a7                	and	a
    79  0182  ed52              	sbc	hl,de
    79  0184  e5                	push	hl
    79  0185  cdaf01            	call	_splashBox
    79  0188  c1                	pop	bc
    79  0189  c1                	pop	bc
    79  018a  c1                	pop	bc
    79  018b  c1                	pop	bc
    79  018c  7c                	ld	a,h
    79  018d  b5                	or	l
    79  018e  ca5701            	jp	z,i_10	;EOS
    79                          .i_11
    79  0191  c1                	pop	bc
    79  0192  212300            	ld	hl,35	;const
    79  0195  e5                	push	hl
    79  0196  2e0d              	ld	l,13
    79  0198  e5                	push	hl
    79  0199  cd0b00            	call	_setCursor
    79  019c  c1                	pop	bc
    79  019d  c1                	pop	bc
    79  019e  215400            	ld	hl,i_1+84
    79  01a1  e5                	push	hl
    79  01a2  3e01              	ld	a,1
    79  01a4  cd0000            	call	printf
    79  01a7  c1                	pop	bc
    79  01a8  2a9501            	ld	hl,(_seed)
    79  01ab  cd0000            	call	srand_fastcall
    79  01ae  c9                	ret
    79                          
    79                          
    79                          	C_LINE	96,"main.c::splash::0::15"
main.c::splash::0::15:
    96                          
    96                          ; Function splashBox flags 0x00000200 __smallc
    96                          ; unsigned char boolsplashBox(int x1, int x2, int y1, int y2)
    96                          ; parameter 'int y2' at sp+2 size(2)
    96                          ; parameter 'int y1' at sp+4 size(2)
    96                          ; parameter 'int x2' at sp+6 size(2)
    96                          ; parameter 'int x1' at sp+8 size(2)
    96                          	C_LINE	96,"main.c::splashBox::0::15"
main.c::splashBox::0::15:
    96                          ._splashBox
    96  01af  cd0000            	call	l_gint8sp	;
    96  01b2  e5                	push	hl
    96  01b3  c3b901            	jp	i_16	;EOS
    96                          .i_14
    96  01b6  e1                	pop	hl
    96  01b7  23                	inc	hl
    96  01b8  e5                	push	hl
    96                          .i_16
    96  01b9  d1                	pop	de
    96  01ba  d5                	push	de
    96  01bb  cd0000            	call	l_gint8sp	;
    96  01be  cd0000            	call	l_le
    96  01c1  d2e001            	jp	nc,i_15	;
    96  01c4  210000            	ld	hl,0	;const
    96  01c7  cd0000            	call	l_gintspsp	;
    96  01ca  cd0000            	call	l_gint8sp	;
    96  01cd  e5                	push	hl
    96  01ce  cd8e02            	call	_splashDot
    96  01d1  c1                	pop	bc
    96  01d2  c1                	pop	bc
    96  01d3  cd0000            	call	_marvin_readchar
    96  01d6  7d                	ld	a,l
    96  01d7  a7                	and	a
    96  01d8  cab601            	jp	z,i_17	;
    96  01db  210100            	ld	hl,1	;const
    96  01de  c1                	pop	bc
    96  01df  c9                	ret
    96                          .i_15
    96  01e0  c1                	pop	bc
    96  01e1  cd0000            	call	l_gint4sp	;
    96  01e4  e5                	push	hl
    96  01e5  c3eb01            	jp	i_20	;EOS
    96                          .i_18
    96  01e8  e1                	pop	hl
    96  01e9  23                	inc	hl
    96  01ea  e5                	push	hl
    96                          .i_20
    96  01eb  210000            	ld	hl,0	;const
    96  01ee  cd0000            	call	l_gintspsp	;
    96  01f1  cd0000            	call	l_gint6sp	;
    96  01f4  d1                	pop	de
    96  01f5  cd0000            	call	l_le
    96  01f8  d21802            	jp	nc,i_19	;
    96  01fb  210800            	ld	hl,8	;const
    96  01fe  cd0000            	call	l_gintspsp	;
    96  0201  c1                	pop	bc
    96  0202  e1                	pop	hl
    96  0203  e5                	push	hl
    96  0204  c5                	push	bc
    96  0205  e5                	push	hl
    96  0206  cd8e02            	call	_splashDot
    96  0209  c1                	pop	bc
    96  020a  c1                	pop	bc
    96  020b  cd0000            	call	_marvin_readchar
    96  020e  7d                	ld	a,l
    96  020f  a7                	and	a
    96  0210  cae801            	jp	z,i_21	;
    96  0213  210100            	ld	hl,1	;const
    96  0216  c1                	pop	bc
    96  0217  c9                	ret
    96                          .i_19
    96  0218  c1                	pop	bc
    96  0219  cd0000            	call	l_gint6sp	;
    96  021c  e5                	push	hl
    96  021d  c32402            	jp	i_24	;EOS
    96                          .i_22
    96  0220  e1                	pop	hl
    96  0221  2b                	dec	hl
    96  0222  e5                	push	hl
    96  0223  23                	inc	hl
    96                          .i_24
    96  0224  d1                	pop	de
    96  0225  d5                	push	de
    96  0226  210a00            	ld	hl,10	;const
    96  0229  39                	add	hl,sp
    96  022a  cd0000            	call	l_gint	;
    96  022d  cd0000            	call	l_ge
    96  0230  d24f02            	jp	nc,i_23	;
    96  0233  210000            	ld	hl,0	;const
    96  0236  cd0000            	call	l_gintspsp	;
    96  0239  cd0000            	call	l_gint6sp	;
    96  023c  e5                	push	hl
    96  023d  cd8e02            	call	_splashDot
    96  0240  c1                	pop	bc
    96  0241  c1                	pop	bc
    96  0242  cd0000            	call	_marvin_readchar
    96  0245  7d                	ld	a,l
    96  0246  a7                	and	a
    96  0247  ca2002            	jp	z,i_25	;
    96  024a  210100            	ld	hl,1	;const
    96  024d  c1                	pop	bc
    96  024e  c9                	ret
    96                          .i_23
    96  024f  c1                	pop	bc
    96  0250  c1                	pop	bc
    96  0251  e1                	pop	hl
    96  0252  e5                	push	hl
    96  0253  c5                	push	bc
    96  0254  e5                	push	hl
    96  0255  c35c02            	jp	i_28	;EOS
    96                          .i_26
    96  0258  e1                	pop	hl
    96  0259  2b                	dec	hl
    96  025a  e5                	push	hl
    96  025b  23                	inc	hl
    96                          .i_28
    96  025c  210000            	ld	hl,0	;const
    96  025f  cd0000            	call	l_gintspsp	;
    96  0262  cd0000            	call	l_gint8sp	;
    96  0265  d1                	pop	de
    96  0266  cd0000            	call	l_ge
    96  0269  d28902            	jp	nc,i_27	;
    96  026c  210a00            	ld	hl,10	;const
    96  026f  cd0000            	call	l_gintspsp	;
    96  0272  c1                	pop	bc
    96  0273  e1                	pop	hl
    96  0274  e5                	push	hl
    96  0275  c5                	push	bc
    96  0276  e5                	push	hl
    96  0277  cd8e02            	call	_splashDot
    96  027a  c1                	pop	bc
    96  027b  c1                	pop	bc
    96  027c  cd0000            	call	_marvin_readchar
    96  027f  7d                	ld	a,l
    96  0280  a7                	and	a
    96  0281  ca5802            	jp	z,i_29	;
    96  0284  210100            	ld	hl,1	;const
    96  0287  c1                	pop	bc
    96  0288  c9                	ret
    96                          .i_27
    96  0289  c1                	pop	bc
    96  028a  210000            	ld	hl,0	;const
    96  028d  c9                	ret
    96                          
    96                          
    96                          	C_LINE	116,"main.c::splashBox::0::20"
main.c::splashBox::0::20:
   116                          
   116                          ; Function splashDot flags 0x00000200 __smallc
   116                          ; void splashDot(int x, int y)
   116                          ; parameter 'int y' at sp+2 size(2)
   116                          ; parameter 'int x' at sp+4 size(2)
   116                          	C_LINE	116,"main.c::splashDot::0::20"
main.c::splashDot::0::20:
   116                          ._splashDot
   116  028e  210400            	ld	hl,4	;const
   116  0291  cd0000            	call	l_g2intspsp	;
   116  0294  212a00            	ld	hl,42	;const
   116  0297  e5                	push	hl
   116  0298  cd2105            	call	_setCell
   116  029b  c1                	pop	bc
   116  029c  c1                	pop	bc
   116  029d  c1                	pop	bc
   116  029e  210300            	ld	hl,3	;const
   116  02a1  110000            	ld	de,0
   116  02a4  d5                	push	de
   116  02a5  e5                	push	hl
   116  02a6  cdf306            	call	_delay
   116  02a9  c1                	pop	bc
   116  02aa  c1                	pop	bc
   116  02ab  2a9501            	ld	hl,(_seed)
   116  02ae  23                	inc	hl
   116  02af  229501            	ld	(_seed),hl
   116  02b2  2b                	dec	hl
   116  02b3  c9                	ret
   116                          
   116                          
   116                          	C_LINE	122,"main.c::splashDot::0::21"
main.c::splashDot::0::21:
   122                          
   122                          ; Function setupGame flags 0x00000200 __smallc
   122                          ; void setupGame()
   122                          	C_LINE	122,"main.c::setupGame::0::21"
main.c::setupGame::0::21:
   122                          ._setupGame
   122  02b4  210000            	ld	hl,0	;const
   122  02b7  229901            	ld	(_score),hl
   122  02ba  210500            	ld	hl,5	;const
   122  02bd  229701            	ld	(_length),hl
   122  02c0  210400            	ld	hl,4	;const
   122  02c3  229b01            	ld	(_motion),hl
   122  02c6  3e01              	ld	a,1
   122  02c8  329401            	ld	(_alive),a
   122  02cb  210000            	ld	hl,0	;const
   122  02ce  e5                	push	hl
   122  02cf  c3d502            	jp	i_32	;EOS
   122                          .i_30
   122  02d2  e1                	pop	hl
   122  02d3  23                	inc	hl
   122  02d4  e5                	push	hl
   122                          .i_32
   122  02d5  d1                	pop	de
   122  02d6  d5                	push	de
   122  02d7  2a9701            	ld	hl,(_length)
   122  02da  cd0000            	call	l_le
   122  02dd  d20703            	jp	nc,i_31	;
   122  02e0  e1                	pop	hl
   122  02e1  e5                	push	hl
   122  02e2  010000            	ld	bc,_x_cell_pos
   122  02e5  c5                	push	bc
   122  02e6  29                	add	hl,hl
   122  02e7  d1                	pop	de
   122  02e8  19                	add	hl,de
   122  02e9  d1                	pop	de
   122  02ea  d5                	push	de
   122  02eb  e5                	push	hl
   122  02ec  212800            	ld	hl,40
   122  02ef  a7                	and	a
   122  02f0  ed52              	sbc	hl,de
   122  02f2  d1                	pop	de
   122  02f3  cd0000            	call	l_pint
   122  02f6  e1                	pop	hl
   122  02f7  e5                	push	hl
   122  02f8  01ca00            	ld	bc,_y_cell_pos
   122  02fb  c5                	push	bc
   122  02fc  29                	add	hl,hl
   122  02fd  d1                	pop	de
   122  02fe  19                	add	hl,de
   122  02ff  360c              	ld	(hl),12
   122  0301  23                	inc	hl
   122  0302  3600              	ld	(hl),0
   122  0304  c3d202            	jp	i_30	;EOS
   122                          .i_31
   122  0307  c1                	pop	bc
   122  0308  cd0000            	call	_clearScreen
   122  030b  cd4005            	call	_drawSnake
   122  030e  cd4106            	call	_dropFruit
   122  0311  cdd706            	call	_printScore
   122  0314  c9                	ret
   122                          
   122                          
   122                          	C_LINE	141,"main.c::setupGame::0::23"
main.c::setupGame::0::23:
   141                          
   141                          ; Function gameLoop flags 0x00000200 __smallc
   141                          ; void gameLoop()
   141                          	C_LINE	141,"main.c::gameLoop::0::23"
main.c::gameLoop::0::23:
   141                          ._gameLoop
   141  0315  cd0000            	call	_marvin_readchar
   141  0318  e5                	push	hl
   141  0319  7c                	ld	a,h
   141  031a  b5                	or	l
   141  031b  cad603            	jp	z,i_33	;
   141  031e  2a9b01            	ld	hl,(_motion)
   141                          .i_36
   141  0321  cd0000            	call	l_case
   141  0324  3903              	defw	i_37
   141  0326  0300              	defw	3
   141  0328  6103              	defw	i_41
   141  032a  0400              	defw	4
   141  032c  8903              	defw	i_45
   141  032e  0100              	defw	1
   141  0330  b103              	defw	i_49
   141  0332  0200              	defw	2
   141  0334  0000              	defw	0
   141  0336  c3d603            	jp	i_53	;EOS
   141                          .i_37
   141  0339  e1                	pop	hl
   141  033a  e5                	push	hl
   141  033b  117a00            	ld	de,122
   141  033e  a7                	and	a
   141  033f  ed52              	sbc	hl,de
   141  0341  c24d03            	jp	nz,i_38	;
   141  0344  210200            	ld	hl,2	;const
   141  0347  229b01            	ld	(_motion),hl
   141  034a  c3d603            	jp	i_39	;EOS
   141                          .i_38
   141  034d  e1                	pop	hl
   141  034e  e5                	push	hl
   141  034f  117800            	ld	de,120
   141  0352  a7                	and	a
   141  0353  ed52              	sbc	hl,de
   141  0355  c2d603            	jp	nz,i_40	;
   141  0358  210100            	ld	hl,1	;const
   141  035b  229b01            	ld	(_motion),hl
   141  035e  c3d603            	jp	i_35	;EOS
   141                          .i_41
   141  0361  e1                	pop	hl
   141  0362  e5                	push	hl
   141  0363  117a00            	ld	de,122
   141  0366  a7                	and	a
   141  0367  ed52              	sbc	hl,de
   141  0369  c27503            	jp	nz,i_42	;
   141  036c  210100            	ld	hl,1	;const
   141  036f  229b01            	ld	(_motion),hl
   141  0372  c3d603            	jp	i_43	;EOS
   141                          .i_42
   141  0375  e1                	pop	hl
   141  0376  e5                	push	hl
   141  0377  117800            	ld	de,120
   141  037a  a7                	and	a
   141  037b  ed52              	sbc	hl,de
   141  037d  c2d603            	jp	nz,i_44	;
   141  0380  210200            	ld	hl,2	;const
   141  0383  229b01            	ld	(_motion),hl
   141  0386  c3d603            	jp	i_35	;EOS
   141                          .i_45
   141  0389  e1                	pop	hl
   141  038a  e5                	push	hl
   141  038b  117a00            	ld	de,122
   141  038e  a7                	and	a
   141  038f  ed52              	sbc	hl,de
   141  0391  c29d03            	jp	nz,i_46	;
   141  0394  210300            	ld	hl,3	;const
   141  0397  229b01            	ld	(_motion),hl
   141  039a  c3d603            	jp	i_47	;EOS
   141                          .i_46
   141  039d  e1                	pop	hl
   141  039e  e5                	push	hl
   141  039f  117800            	ld	de,120
   141  03a2  a7                	and	a
   141  03a3  ed52              	sbc	hl,de
   141  03a5  c2d603            	jp	nz,i_48	;
   141  03a8  210400            	ld	hl,4	;const
   141  03ab  229b01            	ld	(_motion),hl
   141  03ae  c3d603            	jp	i_35	;EOS
   141                          .i_49
   141  03b1  e1                	pop	hl
   141  03b2  e5                	push	hl
   141  03b3  117a00            	ld	de,122
   141  03b6  a7                	and	a
   141  03b7  ed52              	sbc	hl,de
   141  03b9  c2c503            	jp	nz,i_50	;
   141  03bc  210400            	ld	hl,4	;const
   141  03bf  229b01            	ld	(_motion),hl
   141  03c2  c3d603            	jp	i_51	;EOS
   141                          .i_50
   141  03c5  e1                	pop	hl
   141  03c6  e5                	push	hl
   141  03c7  117800            	ld	de,120
   141  03ca  a7                	and	a
   141  03cb  ed52              	sbc	hl,de
   141  03cd  c2d603            	jp	nz,i_52	;
   141  03d0  210300            	ld	hl,3	;const
   141  03d3  229b01            	ld	(_motion),hl
   141                          .i_33
   141  03d6  3a9401            	ld	a,(_alive)
   141  03d9  a7                	and	a
   141  03da  caed03            	jp	z,i_54	;
   141  03dd  21e803            	ld	hl,1000	;const
   141  03e0  110000            	ld	de,0
   141  03e3  d5                	push	de
   141  03e4  e5                	push	hl
   141  03e5  cdf306            	call	_delay
   141  03e8  c1                	pop	bc
   141  03e9  c1                	pop	bc
   141  03ea  cdef03            	call	_move
   141                          .i_54
   141  03ed  c1                	pop	bc
   141  03ee  c9                	ret
   141                          
   141                          
   141                          	C_LINE	174,"main.c::gameLoop::0::27"
main.c::gameLoop::0::27:
   174                          
   174                          ; Function move flags 0x00000200 __smallc
   174                          ; void move()
   174                          	C_LINE	174,"main.c::move::0::27"
main.c::move::0::27:
   174                          ._move
   174  03ef  2a9b01            	ld	hl,(_motion)
   174  03f2  7c                	ld	a,h
   174  03f3  b5                	or	l
   174  03f4  c2f803            	jp	nz,i_55	;
   174  03f7  c9                	ret
   174                          
   174                          
   174                          .i_55
   174  03f8  2a0000            	ld	hl,(_x_cell_pos)
   174  03fb  e5                	push	hl
   174  03fc  2aca00            	ld	hl,(_y_cell_pos)
   174  03ff  e5                	push	hl
   174  0400  2a9b01            	ld	hl,(_motion)
   174                          .i_58
   174  0403  cd0000            	call	l_case
   174  0406  1b04              	defw	i_59
   174  0408  0300              	defw	3
   174  040a  2304              	defw	i_60
   174  040c  0400              	defw	4
   174  040e  2b04              	defw	i_61
   174  0410  0100              	defw	1
   174  0412  3104              	defw	i_62
   174  0414  0200              	defw	2
   174  0416  0000              	defw	0
   174  0418  c33404            	jp	i_63	;EOS
   174                          .i_59
   174  041b  d1                	pop	de
   174  041c  e1                	pop	hl
   174  041d  2b                	dec	hl
   174  041e  e5                	push	hl
   174  041f  d5                	push	de
   174  0420  c33404            	jp	i_57	;EOS
   174                          .i_60
   174  0423  d1                	pop	de
   174  0424  e1                	pop	hl
   174  0425  23                	inc	hl
   174  0426  e5                	push	hl
   174  0427  d5                	push	de
   174  0428  c33404            	jp	i_57	;EOS
   174                          .i_61
   174  042b  e1                	pop	hl
   174  042c  2b                	dec	hl
   174  042d  e5                	push	hl
   174  042e  c33404            	jp	i_57	;EOS
   174                          .i_62
   174  0431  e1                	pop	hl
   174  0432  23                	inc	hl
   174  0433  e5                	push	hl
   174                          .i_57
   174  0434  210200            	ld	hl,2	;const
   174  0437  cd0000            	call	l_gintspsp	;
   174  043a  c1                	pop	bc
   174  043b  e1                	pop	hl
   174  043c  e5                	push	hl
   174  043d  c5                	push	bc
   174  043e  e5                	push	hl
   174  043f  cd8806            	call	_isWithinSnake
   174  0442  c1                	pop	bc
   174  0443  c1                	pop	bc
   174  0444  7c                	ld	a,h
   174  0445  b5                	or	l
   174  0446  c27204            	jp	nz,i_65	;
   174  0449  c1                	pop	bc
   174  044a  e1                	pop	hl
   174  044b  e5                	push	hl
   174  044c  c5                	push	bc
   174  044d  7c                	ld	a,h
   174  044e  17                	rla
   174  044f  da7204            	jp	c,i_65	;
   174  0452  c1                	pop	bc
   174  0453  d1                	pop	de
   174  0454  d5                	push	de
   174  0455  c5                	push	bc
   174  0456  214f00            	ld	hl,79
   174  0459  cd0000            	call	l_gt
   174  045c  da7204            	jp	c,i_65	;
   174  045f  e1                	pop	hl
   174  0460  e5                	push	hl
   174  0461  7c                	ld	a,h
   174  0462  17                	rla
   174  0463  da7204            	jp	c,i_65	;
   174  0466  e1                	pop	hl
   174  0467  e5                	push	hl
   174  0468  111600            	ld	de,22
   174  046b  eb                	ex	de,hl
   174  046c  cd0000            	call	l_gt
   174  046f  d28204            	jp	nc,i_64	;
   174                          .i_65
   174  0472  210000            	ld	hl,0	;const
   174  0475  229b01            	ld	(_motion),hl
   174  0478  7d                	ld	a,l
   174  0479  329401            	ld	(_alive),a
   174  047c  cd4005            	call	_drawSnake
   174  047f  c1                	pop	bc
   174  0480  c1                	pop	bc
   174  0481  c9                	ret
   174                          
   174                          
   174                          .i_64
   174  0482  2a9701            	ld	hl,(_length)
   174  0485  e5                	push	hl
   174  0486  c38c04            	jp	i_69	;EOS
   174                          .i_67
   174  0489  e1                	pop	hl
   174  048a  2b                	dec	hl
   174  048b  e5                	push	hl
   174                          .i_69
   174  048c  e1                	pop	hl
   174  048d  e5                	push	hl
   174  048e  110000            	ld	de,0
   174  0491  eb                	ex	de,hl
   174  0492  cd0000            	call	l_gt
   174  0495  d2d304            	jp	nc,i_68	;
   174  0498  e1                	pop	hl
   174  0499  e5                	push	hl
   174  049a  010000            	ld	bc,_x_cell_pos
   174  049d  c5                	push	bc
   174  049e  29                	add	hl,hl
   174  049f  d1                	pop	de
   174  04a0  19                	add	hl,de
   174  04a1  e5                	push	hl
   174  04a2  210000            	ld	hl,_x_cell_pos
   174  04a5  e5                	push	hl
   174  04a6  cd0000            	call	l_gint4sp	;
   174  04a9  2b                	dec	hl
   174  04aa  29                	add	hl,hl
   174  04ab  d1                	pop	de
   174  04ac  19                	add	hl,de
   174  04ad  cd0000            	call	l_gint	;
   174  04b0  d1                	pop	de
   174  04b1  cd0000            	call	l_pint
   174  04b4  e1                	pop	hl
   174  04b5  e5                	push	hl
   174  04b6  01ca00            	ld	bc,_y_cell_pos
   174  04b9  c5                	push	bc
   174  04ba  29                	add	hl,hl
   174  04bb  d1                	pop	de
   174  04bc  19                	add	hl,de
   174  04bd  e5                	push	hl
   174  04be  21ca00            	ld	hl,_y_cell_pos
   174  04c1  e5                	push	hl
   174  04c2  cd0000            	call	l_gint4sp	;
   174  04c5  2b                	dec	hl
   174  04c6  29                	add	hl,hl
   174  04c7  d1                	pop	de
   174  04c8  19                	add	hl,de
   174  04c9  cd0000            	call	l_gint	;
   174  04cc  d1                	pop	de
   174  04cd  cd0000            	call	l_pint
   174  04d0  c38904            	jp	i_67	;EOS
   174                          .i_68
   174  04d3  c1                	pop	bc
   174  04d4  210000            	ld	hl,_x_cell_pos
   174  04d7  e5                	push	hl
   174  04d8  cd0000            	call	l_gint4sp	;
   174  04db  d1                	pop	de
   174  04dc  cd0000            	call	l_pint
   174  04df  e1                	pop	hl
   174  04e0  e5                	push	hl
   174  04e1  01ca00            	ld	bc,_y_cell_pos
   174  04e4  c5                	push	bc
   174  04e5  d1                	pop	de
   174  04e6  cd0000            	call	l_pint
   174  04e9  c1                	pop	bc
   174  04ea  e1                	pop	hl
   174  04eb  e5                	push	hl
   174  04ec  c5                	push	bc
   174  04ed  eb                	ex	de,hl
   174  04ee  2a9d01            	ld	hl,(_fruit_x)
   174  04f1  cd0000            	call	l_eq
   174  04f4  d21b05            	jp	nc,i_71	;
   174  04f7  d1                	pop	de
   174  04f8  d5                	push	de
   174  04f9  2a9f01            	ld	hl,(_fruit_y)
   174  04fc  cd0000            	call	l_eq
   174  04ff  d21b05            	jp	nc,i_71	;
   174                          .i_72_i_71
   174  0502  2a9701            	ld	hl,(_length)
   174  0505  23                	inc	hl
   174  0506  229701            	ld	(_length),hl
   174  0509  2b                	dec	hl
   174  050a  cdd706            	call	_printScore
   174  050d  2a9901            	ld	hl,(_score)
   174  0510  23                	inc	hl
   174  0511  229901            	ld	(_score),hl
   174  0514  2b                	dec	hl
   174  0515  cdd706            	call	_printScore
   174  0518  cd4106            	call	_dropFruit
   174                          .i_70
   174  051b  cd4005            	call	_drawSnake
   174  051e  c1                	pop	bc
   174  051f  c1                	pop	bc
   174  0520  c9                	ret
   174                          
   174                          
   174                          	C_LINE	229,"main.c::move::0::32"
main.c::move::0::32:
   229                          
   229                          ; Function setCell flags 0x00000200 __smallc
   229                          ; void setCell(int x, int y, char c)
   229                          ; parameter 'char c' at sp+2 size(1)
   229                          ; parameter 'int y' at sp+4 size(2)
   229                          ; parameter 'int x' at sp+6 size(2)
   229                          	C_LINE	229,"main.c::setCell::0::32"
main.c::setCell::0::32:
   229                          ._setCell
   229  0521  210600            	ld	hl,6	;const
   229  0524  cd0000            	call	l_gintspsp	;
   229  0527  cd0000            	call	l_gint6sp	;
   229  052a  e5                	push	hl
   229  052b  cd0b00            	call	_setCursor
   229  052e  c1                	pop	bc
   229  052f  c1                	pop	bc
   229  0530  210200            	ld	hl,2	;const
   229  0533  39                	add	hl,sp
   229  0534  cd0000            	call	l_gchar
   229  0537  e5                	push	hl
   229  0538  210a00            	ld	hl,__sgoioblk+10
   229  053b  e5                	push	hl
   229  053c  cd0000            	call	fputc_callee
   229  053f  c9                	ret
   229                          
   229                          
   229                          	C_LINE	234,"main.c::setCell::0::33"
main.c::setCell::0::33:
   234                          
   234                          ; Function drawSnake flags 0x00000200 __smallc
   234                          ; void drawSnake()
   234                          	C_LINE	234,"main.c::drawSnake::0::33"
main.c::drawSnake::0::33:
   234                          ._drawSnake
   234  0540  210100            	ld	hl,1	;const
   234  0543  e5                	push	hl
   234  0544  2b                	dec	hl
   234  0545  e5                	push	hl
   234  0546  c34c05            	jp	i_75	;EOS
   234                          .i_73
   234  0549  e1                	pop	hl
   234  054a  23                	inc	hl
   234  054b  e5                	push	hl
   234                          .i_75
   234  054c  d1                	pop	de
   234  054d  d5                	push	de
   234  054e  2a9701            	ld	hl,(_length)
   234  0551  cd0000            	call	l_lt
   234  0554  d21c06            	jp	nc,i_74	;
   234  0557  e1                	pop	hl
   234  0558  e5                	push	hl
   234  0559  7c                	ld	a,h
   234  055a  b5                	or	l
   234  055b  c29505            	jp	nz,i_76	;
   234  055e  010000            	ld	bc,_x_cell_pos
   234  0561  c5                	push	bc
   234  0562  29                	add	hl,hl
   234  0563  d1                	pop	de
   234  0564  19                	add	hl,de
   234  0565  5e                	ld	e,(hl)
   234  0566  23                	inc	hl
   234  0567  56                	ld	d,(hl)
   234  0568  d5                	push	de
   234  0569  21ca00            	ld	hl,_y_cell_pos
   234  056c  e5                	push	hl
   234  056d  cd0000            	call	l_gint4sp	;
   234  0570  29                	add	hl,hl
   234  0571  d1                	pop	de
   234  0572  19                	add	hl,de
   234  0573  5e                	ld	e,(hl)
   234  0574  23                	inc	hl
   234  0575  56                	ld	d,(hl)
   234  0576  d5                	push	de
   234  0577  3a9401            	ld	a,(_alive)
   234  057a  a7                	and	a
   234  057b  ca8405            	jp	z,i_79	;
   234  057e  212300            	ld	hl,35	;const
   234  0581  c38705            	jp	i_80	;
   234                          .i_79
   234  0584  212600            	ld	hl,38	;const
   234                          .i_80
   234  0587  7d                	ld	a,l
   234  0588  cd0000            	call	l_sxt
   234  058b  e5                	push	hl
   234  058c  cd2105            	call	_setCell
   234  058f  c1                	pop	bc
   234  0590  c1                	pop	bc
   234  0591  c1                	pop	bc
   234  0592  c30e06            	jp	i_81	;EOS
   234                          .i_76
   234  0595  c1                	pop	bc
   234  0596  e1                	pop	hl
   234  0597  e5                	push	hl
   234  0598  c5                	push	bc
   234  0599  2b                	dec	hl
   234  059a  7c                	ld	a,h
   234  059b  b5                	or	l
   234  059c  c2d805            	jp	nz,i_82	;
   234  059f  e1                	pop	hl
   234  05a0  e5                	push	hl
   234  05a1  010000            	ld	bc,_x_cell_pos
   234  05a4  c5                	push	bc
   234  05a5  29                	add	hl,hl
   234  05a6  d1                	pop	de
   234  05a7  19                	add	hl,de
   234  05a8  5e                	ld	e,(hl)
   234  05a9  23                	inc	hl
   234  05aa  56                	ld	d,(hl)
   234  05ab  d5                	push	de
   234  05ac  21ca00            	ld	hl,_y_cell_pos
   234  05af  e5                	push	hl
   234  05b0  cd0000            	call	l_gint4sp	;
   234  05b3  29                	add	hl,hl
   234  05b4  d1                	pop	de
   234  05b5  19                	add	hl,de
   234  05b6  5e                	ld	e,(hl)
   234  05b7  23                	inc	hl
   234  05b8  56                	ld	d,(hl)
   234  05b9  d5                	push	de
   234  05ba  3a9401            	ld	a,(_alive)
   234  05bd  a7                	and	a
   234  05be  cac705            	jp	z,i_85	;
   234  05c1  212a00            	ld	hl,42	;const
   234  05c4  c3ca05            	jp	i_86	;
   234                          .i_85
   234  05c7  212e00            	ld	hl,46	;const
   234                          .i_86
   234  05ca  7d                	ld	a,l
   234  05cb  cd0000            	call	l_sxt
   234  05ce  e5                	push	hl
   234  05cf  cd2105            	call	_setCell
   234  05d2  c1                	pop	bc
   234  05d3  c1                	pop	bc
   234  05d4  c1                	pop	bc
   234  05d5  c30e06            	jp	i_87	;EOS
   234                          .i_82
   234  05d8  e1                	pop	hl
   234  05d9  e5                	push	hl
   234  05da  010000            	ld	bc,_x_cell_pos
   234  05dd  c5                	push	bc
   234  05de  29                	add	hl,hl
   234  05df  d1                	pop	de
   234  05e0  19                	add	hl,de
   234  05e1  5e                	ld	e,(hl)
   234  05e2  23                	inc	hl
   234  05e3  56                	ld	d,(hl)
   234  05e4  d5                	push	de
   234  05e5  21ca00            	ld	hl,_y_cell_pos
   234  05e8  e5                	push	hl
   234  05e9  cd0000            	call	l_gint4sp	;
   234  05ec  29                	add	hl,hl
   234  05ed  d1                	pop	de
   234  05ee  19                	add	hl,de
   234  05ef  5e                	ld	e,(hl)
   234  05f0  23                	inc	hl
   234  05f1  56                	ld	d,(hl)
   234  05f2  d5                	push	de
   234  05f3  3a9401            	ld	a,(_alive)
   234  05f6  a7                	and	a
   234  05f7  ca0006            	jp	z,i_90	;
   234  05fa  212a00            	ld	hl,42	;const
   234  05fd  c30306            	jp	i_91	;
   234                          .i_90
   234  0600  212e00            	ld	hl,46	;const
   234                          .i_91
   234  0603  7d                	ld	a,l
   234  0604  cd0000            	call	l_sxt
   234  0607  e5                	push	hl
   234  0608  cd2105            	call	_setCell
   234  060b  c1                	pop	bc
   234  060c  c1                	pop	bc
   234  060d  c1                	pop	bc
   234                          .i_81
   234  060e  c1                	pop	bc
   234  060f  e1                	pop	hl
   234  0610  e5                	push	hl
   234  0611  c5                	push	bc
   234  0612  cd0000            	call	l_neg
   234  0615  d1                	pop	de
   234  0616  c1                	pop	bc
   234  0617  e5                	push	hl
   234  0618  d5                	push	de
   234  0619  c34905            	jp	i_73	;EOS
   234                          .i_74
   234  061c  c1                	pop	bc
   234  061d  110000            	ld	de,_x_cell_pos
   234  0620  2a9701            	ld	hl,(_length)
   234  0623  29                	add	hl,hl
   234  0624  19                	add	hl,de
   234  0625  5e                	ld	e,(hl)
   234  0626  23                	inc	hl
   234  0627  56                	ld	d,(hl)
   234  0628  d5                	push	de
   234  0629  11ca00            	ld	de,_y_cell_pos
   234  062c  2a9701            	ld	hl,(_length)
   234  062f  29                	add	hl,hl
   234  0630  19                	add	hl,de
   234  0631  5e                	ld	e,(hl)
   234  0632  23                	inc	hl
   234  0633  56                	ld	d,(hl)
   234  0634  d5                	push	de
   234  0635  212000            	ld	hl,32	;const
   234  0638  e5                	push	hl
   234  0639  cd2105            	call	_setCell
   234  063c  c1                	pop	bc
   234  063d  c1                	pop	bc
   234  063e  c1                	pop	bc
   234  063f  c1                	pop	bc
   234  0640  c9                	ret
   234                          
   234                          
   234                          	C_LINE	245,"main.c::drawSnake::0::35"
main.c::drawSnake::0::35:
   245                          
   245                          ; Function dropFruit flags 0x00000200 __smallc
   245                          ; void dropFruit()
   245                          	C_LINE	245,"main.c::dropFruit::0::35"
main.c::dropFruit::0::35:
   245                          ._dropFruit
   245                          .i_92
   245  0641  cd0000            	call	rand
   245  0644  114e00            	ld	de,78
   245  0647  eb                	ex	de,hl
   245  0648  cd0000            	call	l_div
   245  064b  eb                	ex	de,hl
   245  064c  23                	inc	hl
   245  064d  23                	inc	hl
   245  064e  229d01            	ld	(_fruit_x),hl
   245  0651  cd0000            	call	rand
   245  0654  111500            	ld	de,21
   245  0657  eb                	ex	de,hl
   245  0658  cd0000            	call	l_div
   245  065b  eb                	ex	de,hl
   245  065c  23                	inc	hl
   245  065d  23                	inc	hl
   245  065e  229f01            	ld	(_fruit_y),hl
   245  0661  2a9d01            	ld	hl,(_fruit_x)
   245  0664  e5                	push	hl
   245  0665  2a9f01            	ld	hl,(_fruit_y)
   245  0668  e5                	push	hl
   245  0669  cd8806            	call	_isWithinSnake
   245  066c  c1                	pop	bc
   245  066d  c1                	pop	bc
   245  066e  cd0000            	call	l_lneg
   245  0671  d24106            	jp	nc,i_94	;
   245  0674  2a9d01            	ld	hl,(_fruit_x)
   245  0677  e5                	push	hl
   245  0678  2a9f01            	ld	hl,(_fruit_y)
   245  067b  e5                	push	hl
   245  067c  212b00            	ld	hl,43	;const
   245  067f  e5                	push	hl
   245  0680  cd2105            	call	_setCell
   245  0683  c1                	pop	bc
   245  0684  c1                	pop	bc
   245  0685  c1                	pop	bc
   245  0686  c9                	ret
   245                          .i_93
   245  0687  c9                	ret
   245                          
   245                          
   245                          	C_LINE	256,"main.c::dropFruit::0::38"
main.c::dropFruit::0::38:
   256                          
   256                          ; Function isWithinSnake flags 0x00000200 __smallc
   256                          ; unsigned char boolisWithinSnake(int x, int y)
   256                          ; parameter 'int y' at sp+2 size(2)
   256                          ; parameter 'int x' at sp+4 size(2)
   256                          	C_LINE	256,"main.c::isWithinSnake::0::38"
main.c::isWithinSnake::0::38:
   256                          ._isWithinSnake
   256  0688  210000            	ld	hl,0	;const
   256  068b  e5                	push	hl
   256  068c  c39206            	jp	i_97	;EOS
   256                          .i_95
   256  068f  e1                	pop	hl
   256  0690  23                	inc	hl
   256  0691  e5                	push	hl
   256                          .i_97
   256  0692  d1                	pop	de
   256  0693  d5                	push	de
   256  0694  2a9701            	ld	hl,(_length)
   256  0697  cd0000            	call	l_lt
   256  069a  d2d206            	jp	nc,i_96	;
   256  069d  cd0000            	call	l_gint6sp	;
   256  06a0  e5                	push	hl
   256  06a1  210000            	ld	hl,_x_cell_pos
   256  06a4  e5                	push	hl
   256  06a5  cd0000            	call	l_gint4sp	;
   256  06a8  29                	add	hl,hl
   256  06a9  d1                	pop	de
   256  06aa  19                	add	hl,de
   256  06ab  cd0000            	call	l_gint	;
   256  06ae  d1                	pop	de
   256  06af  cd0000            	call	l_eq
   256  06b2  d28f06            	jp	nc,i_99	;
   256  06b5  cd0000            	call	l_gint4sp	;
   256  06b8  e5                	push	hl
   256  06b9  21ca00            	ld	hl,_y_cell_pos
   256  06bc  e5                	push	hl
   256  06bd  cd0000            	call	l_gint4sp	;
   256  06c0  29                	add	hl,hl
   256  06c1  d1                	pop	de
   256  06c2  19                	add	hl,de
   256  06c3  cd0000            	call	l_gint	;
   256  06c6  d1                	pop	de
   256  06c7  cd0000            	call	l_eq
   256  06ca  d28f06            	jp	nc,i_99	;
   256                          .i_100_i_99
   256  06cd  210100            	ld	hl,1	;const
   256  06d0  c1                	pop	bc
   256  06d1  c9                	ret
   256                          .i_96
   256  06d2  c1                	pop	bc
   256  06d3  210000            	ld	hl,0	;const
   256  06d6  c9                	ret
   256                          
   256                          
   256                          	C_LINE	265,"main.c::isWithinSnake::0::41"
main.c::isWithinSnake::0::41:
   265                          
   265                          ; Function printScore flags 0x00000200 __smallc
   265                          ; void printScore()
   265                          	C_LINE	265,"main.c::printScore::0::41"
main.c::printScore::0::41:
   265                          ._printScore
   265  06d7  212300            	ld	hl,35	;const
   265  06da  e5                	push	hl
   265  06db  2e18              	ld	l,24
   265  06dd  e5                	push	hl
   265  06de  cd0b00            	call	_setCursor
   265  06e1  c1                	pop	bc
   265  06e2  c1                	pop	bc
   265  06e3  218e00            	ld	hl,i_1+142
   265  06e6  e5                	push	hl
   265  06e7  2a9901            	ld	hl,(_score)
   265  06ea  e5                	push	hl
   265  06eb  3e02              	ld	a,2
   265  06ed  cd0000            	call	printf
   265  06f0  c1                	pop	bc
   265  06f1  c1                	pop	bc
   265  06f2  c9                	ret
   265                          
   265                          
   265                          	C_LINE	270,"main.c::printScore::0::42"
main.c::printScore::0::42:
   270                          
   270                          ; Function delay flags 0x00000200 __smallc
   270                          ; void delay(unsigned long d)
   270                          ; parameter 'unsigned long d' at sp+2 size(4)
   270                          	C_LINE	270,"main.c::delay::0::42"
main.c::delay::0::42:
   270                          ._delay
   270  06f3  210000            	ld	hl,0	;const
   270  06f6  54                	ld	d,h
   270  06f7  5d                	ld	e,l
   270  06f8  d5                	push	de
   270  06f9  e5                	push	hl
   270  06fa  c30c07            	jp	i_103	;EOS
   270                          .i_101
   270  06fd  210000            	ld	hl,0	;const
   270  0700  39                	add	hl,sp
   270  0701  e5                	push	hl
   270  0702  cd0000            	call	l_glong
   270  0705  cd0000            	call	l_inclong
   270  0708  c1                	pop	bc
   270  0709  cd0000            	call	l_plong
   270                          .i_103
   270  070c  210000            	ld	hl,0	;const
   270  070f  39                	add	hl,sp
   270  0710  cd0000            	call	l_glong2sp
   270  0713  210a00            	ld	hl,10	;const
   270  0716  39                	add	hl,sp
   270  0717  cd0000            	call	l_glong
   270  071a  cd0000            	call	l_long_ult
   270  071d  dafd06            	jp	c,i_101	;EOS
   270                          .i_102
   270  0720  c1                	pop	bc
   270  0721  c1                	pop	bc
   270  0722  c9                	ret
   270                          
   270                          
   270                          	SECTION	bss_compiler
   270                          	SECTION	code_compiler
   270                          ; --- Start of Optimiser additions ---
   270                          	defc	i_40 = i_39
   270                          	defc	i_44 = i_43
   270                          	defc	i_48 = i_47
   270                          	defc	i_52 = i_51
   270                          	defc	i_35 = i_33
   270                          	defc	i_87 = i_81
   270                          	defc	i_9 = i_6
   270                          	defc	i_7 = i_2
   270                          	defc	i_13 = i_10
   270                          	defc	i_17 = i_14
   270                          	defc	i_21 = i_18
   270                          	defc	i_25 = i_22
   270                          	defc	i_29 = i_26
   270                          	defc	i_39 = i_35
   270                          	defc	i_43 = i_35
   270                          	defc	i_47 = i_35
   270                          	defc	i_51 = i_35
   270                          	defc	i_53 = i_35
   270                          	defc	i_63 = i_57
   270                          	defc	i_71 = i_70
   270                          	defc	i_94 = i_92
   270                          	defc	i_99 = i_98
   270                          	defc	i_98 = i_95
   270                          
   270                          	SECTION	rodata_compiler
   270                          .i_1
   270                          	defm	""
   270  0000  1b                	defb	27
   270                          
   270  0001  5b324a            	defm	"[2J"
   270  0004  00                	defb	0
   270                          
   270                          	defm	""
   270  0005  1b                	defb	27
   270                          
   270  0006  5b25643b256448    	defm	"[%d;%dH"
   270  000d  00                	defb	0
   270                          
   270                          	defm	""
   270  000e  1b                	defb	27
   270                          
   270  000f  5b48              	defm	"[H"
   270  0011  00                	defb	0
   270                          
   270                          	defm	""
   270  0012  1b                	defb	27
   270                          
   270  0013  5b25642563        	defm	"[%d%c"
   270  0018  00                	defb	0
   270                          
   270                          	defm	""
   270  0019  1b                	defb	27
   270                          
   270  001a  5b3f32356c        	defm	"[?25l"
   270  001f  00                	defb	0
   270                          
   270                          	defm	""
   270  0020  1b                	defb	27
   270                          
   270  0021  5b3f323568        	defm	"[?25h"
   270  0026  00                	defb	0
   270                          
   270  0027  47616d65204f7665  	defm	"Game Over"
              72                
   270  0030  00                	defb	0
   270                          
   270  0031  5072657373207120  	defm	"Press q to quit"
              746f2071756974    
   270  0040  00                	defb	0
   270                          
   270  0041  6f72207020746f20  	defm	"or p to play again"
              706c617920616761  
              696e              
   270  0053  00                	defb	0
   270                          
   270  0054  536e616b6521      	defm	"Snake!"
   270  005a  00                	defb	0
   270                          
   270  005b  507265737320616e  	defm	"Press any key to start"
              79206b657920746f  
              207374617274      
   270  0071  00                	defb	0
   270                          
   270  0072  7a20616e64207820  	defm	"z and x to change direction"
              746f206368616e67  
              6520646972656374  
              696f6e            
   270  008d  00                	defb	0
   270                          
   270  008e  53636f72653a2025  	defm	"Score: %d"
              64                
   270  0097  00                	defb	0
   270                          
   270                          
   270                          ; --- Start of Static Variables ---
   270                          
   270                          	SECTION	bss_compiler
   270  0000  0000000000000000  ._x_cell_pos	defs	202
              0000000000000000  
              0000000000000000  
              0000000000000000  
              0000000000000000  
              0000000000000000  
              0000000000000000  
              0000000000000000  
              0000000000000000  
              0000000000000000  
              0000000000000000  
              0000000000000000  
              0000000000000000  
              0000000000000000  
              0000000000000000  
              0000000000000000  
              0000000000000000  
              0000000000000000  
              0000000000000000  
              0000000000000000  
              0000000000000000  
              0000000000000000  
              0000000000000000  
              0000000000000000  
              0000000000000000  
              0000              
   270  00ca  0000000000000000  ._y_cell_pos	defs	202
              0000000000000000  
              0000000000000000  
              0000000000000000  
              0000000000000000  
              0000000000000000  
              0000000000000000  
              0000000000000000  
              0000000000000000  
              0000000000000000  
              0000000000000000  
              0000000000000000  
              0000000000000000  
              0000000000000000  
              0000000000000000  
              0000000000000000  
              0000000000000000  
              0000000000000000  
              0000000000000000  
              0000000000000000  
              0000000000000000  
              0000000000000000  
              0000000000000000  
              0000000000000000  
              0000000000000000  
              0000              
   270  0194  00                ._alive	defs	1
   270  0195  0000              ._seed	defs	2
   270  0197  0000              ._length	defs	2
   270  0199  0000              ._score	defs	2
   270  019b  0000              ._motion	defs	2
   270  019d  0000              ._fruit_x	defs	2
   270  019f  0000              ._fruit_y	defs	2
   270                          	SECTION	code_compiler
   270                          
   270                          
   270                          ; --- Start of Scope Defns ---
   270                          
   270                          	GLOBAL	atoi
   270                          	GLOBAL	atoi_fastcall
   270                          	GLOBAL	atol
   270                          	GLOBAL	atol_fastcall
   270                          	GLOBAL	itoa
   270                          	GLOBAL	itoa_callee
   270                          	GLOBAL	ltoa
   270                          	GLOBAL	ltoa_callee
   270                          	GLOBAL	strtol
   270                          	GLOBAL	strtol_callee
   270                          	GLOBAL	strtoul
   270                          	GLOBAL	strtoul_callee
   270                          	GLOBAL	ultoa
   270                          	GLOBAL	ultoa_callee
   270                          	GLOBAL	utoa
   270                          	GLOBAL	utoa_callee
   270                          	GLOBAL	_atoll
   270                          	GLOBAL	_atoll_callee
   270                          	GLOBAL	_lltoa
   270                          	GLOBAL	_lltoa_callee
   270                          	GLOBAL	_strtoll
   270                          	GLOBAL	_strtoll_callee
   270                          	GLOBAL	_strtoull
   270                          	GLOBAL	_strtoull_callee
   270                          	GLOBAL	_ulltoa
   270                          	GLOBAL	_ulltoa_callee
   270                          	GLOBAL	rand
   270                          	GLOBAL	srand
   270                          	GLOBAL	srand_fastcall
   270                          	GLOBAL	mallinit
   270                          	GLOBAL	sbrk
   270                          	GLOBAL	calloc
   270                          	GLOBAL	free
   270                          	GLOBAL	malloc
   270                          	GLOBAL	realloc
   270                          	GLOBAL	mallinfo
   270                          	GLOBAL	malloc_fastcall
   270                          	GLOBAL	free_fastcall
   270                          	GLOBAL	sbrk_callee
   270                          	GLOBAL	calloc_callee
   270                          	GLOBAL	realloc_callee
   270                          	GLOBAL	mallinfo_callee
   270                          	GLOBAL	HeapCreate
   270                          	GLOBAL	HeapSbrk
   270                          	GLOBAL	HeapSbrk_callee
   270                          	GLOBAL	HeapCalloc
   270                          	GLOBAL	HeapCalloc_callee
   270                          	GLOBAL	HeapFree
   270                          	GLOBAL	HeapFree_callee
   270                          	GLOBAL	HeapAlloc
   270                          	GLOBAL	HeapAlloc_callee
   270                          	GLOBAL	HeapRealloc
   270                          	GLOBAL	HeapRealloc_callee
   270                          	GLOBAL	HeapInfo
   270                          	GLOBAL	HeapInfo_callee
   270                          	GLOBAL	malloc_far
   270                          	GLOBAL	free_far
   270                          	GLOBAL	sbrk_far
   270                          	GLOBAL	calloc_far
   270                          	GLOBAL	realloc_far
   270                          	GLOBAL	mallinfo_far
   270                          	GLOBAL	freeall_far
   270                          	GLOBAL	exit
   270                          	GLOBAL	atexit
   270                          	GLOBAL	exit_fastcall
   270                          	GLOBAL	atexit_fastcall
   270                          	GLOBAL	getenv
   270                          	GLOBAL	getenv_r
   270                          	GLOBAL	setenv
   270                          	GLOBAL	unsetenv
   270                          	GLOBAL	getopt
   270                          	GLOBAL	_optarg
   270                          	GLOBAL	_opterr
   270                          	GLOBAL	_optind
   270                          	GLOBAL	_optopt
   270                          	GLOBAL	_optreset
   270                          	GLOBAL	l_bsearch
   270                          	GLOBAL	l_bsearch_callee
   270                          	GLOBAL	l_qsort
   270                          	GLOBAL	l_qsort_callee
   270                          	GLOBAL	qsort_sccz80
   270                          	GLOBAL	qsort_sccz80_callee
   270                          	GLOBAL	qsort_sdcc
   270                          	GLOBAL	qsort_sdcc_callee
   270                          	GLOBAL	_div_
   270                          	GLOBAL	_div__callee
   270                          	GLOBAL	_divu_
   270                          	GLOBAL	_divu__callee
   270                          	GLOBAL	_ldiv_
   270                          	GLOBAL	_ldiv__callee
   270                          	GLOBAL	_ldivu_
   270                          	GLOBAL	_ldivu__callee
   270                          	GLOBAL	abs
   270                          	GLOBAL	abs_fastcall
   270                          	GLOBAL	labs
   270                          	GLOBAL	labs_fastcall
   270                          	GLOBAL	isqrt
   270                          	GLOBAL	isqrt_fastcall
   270                          	GLOBAL	inp
   270                          	GLOBAL	inp_fastcall
   270                          	GLOBAL	outp
   270                          	GLOBAL	outp_callee
   270                          	GLOBAL	swapendian
   270                          	GLOBAL	bpoke
   270                          	GLOBAL	wpoke
   270                          	GLOBAL	bpeek
   270                          	GLOBAL	wpeek
   270                          	GLOBAL	bpeek_fastcall
   270                          	GLOBAL	wpeek_fastcall
   270                          	GLOBAL	bpoke_callee
   270                          	GLOBAL	wpoke_callee
   270                          	GLOBAL	t_delay
   270                          	GLOBAL	sleep
   270                          	GLOBAL	sleep_fastcall
   270                          	GLOBAL	msleep
   270                          	GLOBAL	msleep_fastcall
   270                          	GLOBAL	extract_bits
   270                          	GLOBAL	extract_bits_callee
   270                          	GLOBAL	wcmatch
   270                          	GLOBAL	unbcd
   270                          	GLOBAL	open
   270                          	GLOBAL	creat
   270                          	GLOBAL	close
   270                          	GLOBAL	read
   270                          	GLOBAL	write
   270                          	GLOBAL	lseek
   270                          	GLOBAL	readbyte
   270                          	GLOBAL	writebyte
   270                          	GLOBAL	fsync
   270                          	GLOBAL	getcwd
   270                          	GLOBAL	chdir
   270                          	GLOBAL	getwd
   270                          	GLOBAL	rmdir
   270                          	GLOBAL	__RND_BLOCKSIZE
   270                          	GLOBAL	rnd_loadblock
   270                          	GLOBAL	rnd_saveblock
   270                          	GLOBAL	rnd_erase
   270                          	GLOBAL	rnd_erase_fastcall
   270                          	GLOBAL	__FOPEN_MAX
   270                          	GLOBAL	__sgoioblk
   270                          	GLOBAL	__sgoioblk_end
   270                          	GLOBAL	fopen_zsock
   270                          	GLOBAL	fileno
   270                          	GLOBAL	fopen
   270                          	GLOBAL	freopen
   270                          	GLOBAL	fdopen
   270                          	GLOBAL	_freopen1
   270                          	GLOBAL	fmemopen
   270                          	GLOBAL	funopen
   270                          	GLOBAL	fclose
   270                          	GLOBAL	fflush
   270                          	GLOBAL	closeall
   270                          	GLOBAL	fgets
   270                          	GLOBAL	fputs
   270                          	GLOBAL	fputs_callee
   270                          	GLOBAL	fputc
   270                          	GLOBAL	fputc_callee
   270                          	GLOBAL	fgetc
   270                          	GLOBAL	ungetc
   270                          	GLOBAL	feof
   270                          	GLOBAL	feof_fastcall
   270                          	GLOBAL	ferror
   270                          	GLOBAL	ferror_fastcall
   270                          	GLOBAL	puts
   270                          	GLOBAL	ftell
   270                          	GLOBAL	fgetpos
   270                          	GLOBAL	fseek
   270                          	GLOBAL	fread
   270                          	GLOBAL	fwrite
   270                          	GLOBAL	gets
   270                          	GLOBAL	printf
   270                          	GLOBAL	fprintf
   270                          	GLOBAL	sprintf
   270                          	GLOBAL	snprintf
   270                          	GLOBAL	vfprintf
   270                          	GLOBAL	vsnprintf
   270                          	GLOBAL	sprintff
   270                          	GLOBAL	snprintff
   270                          	GLOBAL	vsnprintff
   270                          	GLOBAL	printn
   270                          	GLOBAL	scanf
   270                          	GLOBAL	fscanf
   270                          	GLOBAL	sscanf
   270                          	GLOBAL	vfscanf
   270                          	GLOBAL	vsscanf
   270                          	GLOBAL	getarg
   270                          	GLOBAL	fchkstd
   270                          	GLOBAL	fgetc_cons
   270                          	GLOBAL	fgetc_cons_inkey
   270                          	GLOBAL	fputc_cons
   270                          	GLOBAL	fgets_cons
   270                          	GLOBAL	puts_cons
   270                          	GLOBAL	fabandon
   270                          	GLOBAL	fdtell
   270                          	GLOBAL	fdgetpos
   270                          	GLOBAL	rename
   270                          	GLOBAL	remove
   270                          	GLOBAL	getk
   270                          	GLOBAL	getk_inkey
   270                          	GLOBAL	printk
   270                          	GLOBAL	perror
   270                          	GLOBAL	set_fputc_cons
   270                          	GLOBAL	fputc_cons_native
   270                          	GLOBAL	fputc_cons_generic
   270                          	GLOBAL	fputc_cons_ansi
   270                          	GLOBAL	_clearScreen
   270                          	GLOBAL	_setCursor
   270                          	GLOBAL	_setCursorHome
   270                          	GLOBAL	_cursorMove
   270                          	GLOBAL	_hideCursor
   270                          	GLOBAL	_showCursor
   270                          	GLOBAL	_marvin_readchar
   270                          	GLOBAL	_marvin_lcd_putcmd
   270                          	GLOBAL	_marvin_lcd_putchar
   270                          	GLOBAL	_marvin_lcd_init
   270                          	GLOBAL	_splash
   270                          	GLOBAL	_splashDot
   270                          	GLOBAL	_splashBox
   270                          	GLOBAL	_delay
   270                          	GLOBAL	_setCell
   270                          	GLOBAL	_drawSnake
   270                          	GLOBAL	_setupGame
   270                          	GLOBAL	_dropFruit
   270                          	GLOBAL	_isWithinSnake
   270                          	GLOBAL	_printScore
   270                          	GLOBAL	_gameLoop
   270                          	GLOBAL	_move
   270                          	GLOBAL	_gameOver
   270                          	GLOBAL	_x_cell_pos
   270                          	GLOBAL	_y_cell_pos
   270                          	GLOBAL	_alive
   270                          	GLOBAL	_seed
   270                          	GLOBAL	_length
   270                          	GLOBAL	_score
   270                          	GLOBAL	_motion
   270                          	GLOBAL	_fruit_x
   270                          	GLOBAL	_fruit_y
   270                          	GLOBAL	_main
   270                          
   270                          
   270                          ; --- End of Scope Defns ---
   270                          
   270                          
   270                          ; --- End of Compilation ---
   270                          
